

Microchip MPLAB XC8 Assembler V2.41 build 20230208172133 
                                                                                               Fri Feb 09 10:02:39 2024

Microchip MPLAB XC8 C Compiler v2.41 (Free license) build 20230208172133 Og1 
     1                           	processor	16F887
     2                           	pagewidth 120
     3                           	opt	flic
     4                           	psect	idataBANK0,global,class=CODE,delta=2,noexec
     5                           	psect	strings,global,class=STRING,delta=2,noexec
     6                           	psect	stringtext,global,reloc=256,class=STRCODE,delta=2,noexec
     7                           	psect	cinit,global,class=CODE,merge=1,delta=2
     8                           	psect	bssBANK0,global,class=BANK0,space=1,delta=1,noexec
     9                           	psect	dataBANK0,global,class=BANK0,space=1,delta=1,noexec
    10                           	psect	clrtext,global,class=CODE,delta=2
    11                           	psect	cstackCOMMON,global,class=COMMON,space=1,delta=1,noexec
    12                           	psect	cstackBANK0,global,class=BANK0,space=1,delta=1,noexec
    13                           	psect	maintext,global,class=CODE,split=1,delta=2
    14                           	psect	text1,local,class=CODE,merge=1,delta=2
    15                           	psect	text2,local,class=CODE,merge=1,delta=2
    16                           	psect	text3,local,class=CODE,merge=1,delta=2
    17                           	psect	text4,local,class=CODE,merge=1,delta=2
    18                           	psect	text5,local,class=CODE,merge=1,delta=2
    19                           	psect	text6,local,class=CODE,merge=1,delta=2
    20                           	psect	text7,local,class=CODE,merge=1,delta=2
    21                           	psect	text8,local,class=CODE,merge=1,delta=2
    22                           	psect	text9,local,class=CODE,merge=1,delta=2
    23                           	psect	text10,local,class=CODE,merge=1,delta=2
    24                           	psect	text11,local,class=CODE,merge=1,delta=2
    25                           	psect	text12,local,class=CODE,merge=1,delta=2
    26                           	psect	config,global,abs,ovrld,class=CONFIG,space=4,delta=2,noexec
    27                           	dabs	1,0x7E,2
    28     0000                     
    29                           ; Generated 22/03/2023 GMT
    30                           ; 
    31                           ; Copyright © 2023, Microchip Technology Inc. and its subsidiaries ("Microchip")
    32                           ; All rights reserved.
    33                           ; 
    34                           ; This software is developed by Microchip Technology Inc. and its subsidiaries ("Microch
      +                          ip").
    35                           ; 
    36                           ; Redistribution and use in source and binary forms, with or without modification, are
    37                           ; permitted provided that the following conditions are met:
    38                           ; 
    39                           ;     1. Redistributions of source code must retain the above copyright notice, this lis
      +                          t of
    40                           ;        conditions and the following disclaimer.
    41                           ; 
    42                           ;     2. Redistributions in binary form must reproduce the above copyright notice, this 
      +                          list
    43                           ;        of conditions and the following disclaimer in the documentation and/or other
    44                           ;        materials provided with the distribution. Publication is not required when
    45                           ;        this file is used in an embedded application.
    46                           ; 
    47                           ;     3. Microchip's name may not be used to endorse or promote products derived from th
      +                          is
    48                           ;        software without specific prior written permission.
    49                           ; 
    50                           ; THIS SOFTWARE IS PROVIDED BY MICROCHIP "AS IS" AND ANY EXPRESS OR IMPLIED WARRANTIES,
    51                           ; INCLUDING, BUT NOT LIMITED TO, THE IMPLIED WARRANTIES OF MERCHANTABILITY AND FITNESS F
      +                          OR
    52                           ; PURPOSE ARE DISCLAIMED.  IN NO EVENT SHALL MICROCHIP BE LIABLE FOR ANY DIRECT, INDIREC
      +                          T,
    53                           ; INCIDENTAL, SPECIAL, EXEMPLARY, OR CONSEQUENTIAL DAMAGES (INCLUDING BUT NOT LIMITED TO
    54                           ; PROCUREMENT OF SUBSTITUTE GOODS OR SERVICES; LOSS OF USE, DATA OR PROFITS; OR BUSINESS
    55                           ; INTERRUPTION) HOWSOEVER CAUSED AND ON ANY THEORY OF LIABILITY, WHETHER IN CONTRACT, ST
      +                          RICT
    56                           ; LIABILITY, OR TORT (INCLUDING NEGLIGENCE OR OTHERWISE) ARISING IN ANY WAY OUT OF THE U
      +                          SE OF
    57                           ; THIS SOFTWARE, EVEN IF ADVISED OF THE POSSIBILITY OF SUCH DAMAGE.
    58                           ; 
    59                           ; 
    60                           ; Code-generator required, PIC16F887 Definitions
    61                           ; 
    62                           ; SFR Addresses
    63     0000                     	;# 
    64     0001                     	;# 
    65     0002                     	;# 
    66     0003                     	;# 
    67     0004                     	;# 
    68     0005                     	;# 
    69     0006                     	;# 
    70     0007                     	;# 
    71     0008                     	;# 
    72     0009                     	;# 
    73     000A                     	;# 
    74     000B                     	;# 
    75     000C                     	;# 
    76     000D                     	;# 
    77     000E                     	;# 
    78     000E                     	;# 
    79     000F                     	;# 
    80     0010                     	;# 
    81     0011                     	;# 
    82     0012                     	;# 
    83     0013                     	;# 
    84     0014                     	;# 
    85     0015                     	;# 
    86     0015                     	;# 
    87     0016                     	;# 
    88     0017                     	;# 
    89     0018                     	;# 
    90     0019                     	;# 
    91     001A                     	;# 
    92     001B                     	;# 
    93     001B                     	;# 
    94     001C                     	;# 
    95     001D                     	;# 
    96     001E                     	;# 
    97     001F                     	;# 
    98     0081                     	;# 
    99     0085                     	;# 
   100     0086                     	;# 
   101     0087                     	;# 
   102     0088                     	;# 
   103     0089                     	;# 
   104     008C                     	;# 
   105     008D                     	;# 
   106     008E                     	;# 
   107     008F                     	;# 
   108     0090                     	;# 
   109     0091                     	;# 
   110     0092                     	;# 
   111     0093                     	;# 
   112     0093                     	;# 
   113     0093                     	;# 
   114     0094                     	;# 
   115     0095                     	;# 
   116     0096                     	;# 
   117     0097                     	;# 
   118     0098                     	;# 
   119     0099                     	;# 
   120     009A                     	;# 
   121     009B                     	;# 
   122     009C                     	;# 
   123     009D                     	;# 
   124     009E                     	;# 
   125     009F                     	;# 
   126     0105                     	;# 
   127     0107                     	;# 
   128     0108                     	;# 
   129     0109                     	;# 
   130     010C                     	;# 
   131     010C                     	;# 
   132     010D                     	;# 
   133     010E                     	;# 
   134     010F                     	;# 
   135     0185                     	;# 
   136     0187                     	;# 
   137     0188                     	;# 
   138     0189                     	;# 
   139     018C                     	;# 
   140     018D                     	;# 
   141     0000                     	;# 
   142     0001                     	;# 
   143     0002                     	;# 
   144     0003                     	;# 
   145     0004                     	;# 
   146     0005                     	;# 
   147     0006                     	;# 
   148     0007                     	;# 
   149     0008                     	;# 
   150     0009                     	;# 
   151     000A                     	;# 
   152     000B                     	;# 
   153     000C                     	;# 
   154     000D                     	;# 
   155     000E                     	;# 
   156     000E                     	;# 
   157     000F                     	;# 
   158     0010                     	;# 
   159     0011                     	;# 
   160     0012                     	;# 
   161     0013                     	;# 
   162     0014                     	;# 
   163     0015                     	;# 
   164     0015                     	;# 
   165     0016                     	;# 
   166     0017                     	;# 
   167     0018                     	;# 
   168     0019                     	;# 
   169     001A                     	;# 
   170     001B                     	;# 
   171     001B                     	;# 
   172     001C                     	;# 
   173     001D                     	;# 
   174     001E                     	;# 
   175     001F                     	;# 
   176     0081                     	;# 
   177     0085                     	;# 
   178     0086                     	;# 
   179     0087                     	;# 
   180     0088                     	;# 
   181     0089                     	;# 
   182     008C                     	;# 
   183     008D                     	;# 
   184     008E                     	;# 
   185     008F                     	;# 
   186     0090                     	;# 
   187     0091                     	;# 
   188     0092                     	;# 
   189     0093                     	;# 
   190     0093                     	;# 
   191     0093                     	;# 
   192     0094                     	;# 
   193     0095                     	;# 
   194     0096                     	;# 
   195     0097                     	;# 
   196     0098                     	;# 
   197     0099                     	;# 
   198     009A                     	;# 
   199     009B                     	;# 
   200     009C                     	;# 
   201     009D                     	;# 
   202     009E                     	;# 
   203     009F                     	;# 
   204     0105                     	;# 
   205     0107                     	;# 
   206     0108                     	;# 
   207     0109                     	;# 
   208     010C                     	;# 
   209     010C                     	;# 
   210     010D                     	;# 
   211     010E                     	;# 
   212     010F                     	;# 
   213     0185                     	;# 
   214     0187                     	;# 
   215     0188                     	;# 
   216     0189                     	;# 
   217     018C                     	;# 
   218     018D                     	;# 
   219                           
   220                           	psect	idataBANK0
   221     0004                     __pidataBANK0:
   222                           
   223                           ;initializer for _flickermax
   224     0004  3446               	retlw	70
   225     0005  3400               	retlw	0
   226                           
   227                           ;initializer for _flickerspeed
   228     0006  3464               	retlw	100
   229     0007  3400               	retlw	0
   230     0009                     _PORTE	set	9
   231     0005                     _PORTA	set	5
   232     000B                     _INTCONbits	set	11
   233     000B                     _INTCON	set	11
   234     0007                     _PORTC	set	7
   235     0008                     _PORTD	set	8
   236     0006                     _PORTB	set	6
   237     005E                     _PEIE	set	94
   238     005B                     _RBIE	set	91
   239     0058                     _RBIF	set	88
   240     0048                     _RE0	set	72
   241     002B                     _RA3	set	43
   242     003C                     _RC4	set	60
   243     002E                     _RA6	set	46
   244     0029                     _RA1	set	41
   245     003A                     _RC2	set	58
   246     002D                     _RA5	set	45
   247     0037                     _RB7	set	55
   248     0039                     _RC1	set	57
   249     002F                     _RA7	set	47
   250     003D                     _RC5	set	61
   251     002C                     _RA4	set	44
   252     003B                     _RC3	set	59
   253     002A                     _RA2	set	42
   254     0038                     _RC0	set	56
   255     0028                     _RA0	set	40
   256     0036                     _RB6	set	54
   257     0034                     _RB4	set	52
   258     0035                     _RB5	set	53
   259     0089                     _TRISE	set	137
   260     0088                     _TRISD	set	136
   261     0087                     _TRISC	set	135
   262     0086                     _TRISB	set	134
   263     0085                     _TRISA	set	133
   264     008F                     _OSCCON	set	143
   265     0465                     _RCIE	set	1125
   266     04B7                     _IOCB7	set	1207
   267     04B6                     _IOCB6	set	1206
   268     0108                     _CM2CON0	set	264
   269     0107                     _CM1CON0	set	263
   270     0189                     _ANSELH	set	393
   271     0188                     _ANSEL	set	392
   272                           
   273                           	psect	strings
   274     0800                     __pstrings:
   275     0800                     stringtab:
   276     0800                     __stringtab:
   277                           
   278                           ;	String table - string pointers are 2 bytes each
   279     0800  1BFF               	btfsc	btemp+1,7
   280     0801  280A               	ljmp	stringcode
   281     0802  1383               	bcf	3,7
   282     0803  187F               	btfsc	btemp+1,0
   283     0804  1783               	bsf	3,7
   284     0805  0800               	movf	0,w
   285     0806  0A84               	incf	4,f
   286     0807  1903               	skipnz
   287     0808  0AFF               	incf	btemp+1,f
   288     0809  0008               	return
   289     080A                     stringcode:
   290     080A  087F               	movf	btemp+1,w
   291     080B  397F               	andlw	127
   292     080C  008A               	movwf	10
   293     080D  0804               	movf	4,w
   294     080E  0A84               	incf	4,f
   295     080F  1903               	skipnz
   296     0810  0AFF               	incf	btemp+1,f
   297     0811  0082               	movwf	2
   298     0812                     __stringbase:
   299     0812                     __end_of__stringtab:
   300                           
   301                           	psect	stringtext
   302     1000                     __pstringtext:
   303     1000                     STR_33:
   304     1000  3420               	retlw	32	;' '
   305     1001  3420               	retlw	32	;' '
   306     1002  3420               	retlw	32	;' '
   307     1003  3420               	retlw	32	;' '
   308     1004  3420               	retlw	32	;' '
   309     1005  3420               	retlw	32	;' '
   310     1006  3420               	retlw	32	;' '
   311     1007  3420               	retlw	32	;' '
   312     1008  3420               	retlw	32	;' '
   313     1009  3420               	retlw	32	;' '
   314     100A  3420               	retlw	32	;' '
   315     100B  3420               	retlw	32	;' '
   316     100C  3420               	retlw	32	;' '
   317     100D  3420               	retlw	32	;' '
   318     100E  3420               	retlw	32	;' '
   319     100F  3420               	retlw	32	;' '
   320     1010  3420               	retlw	32	;' '
   321     1011  3400               	retlw	0
   322     1012                     STR_56:
   323     1012  3448               	retlw	72	;'H'
   324     1013  3461               	retlw	97	;'a'
   325     1014  3465               	retlw	101	;'e'
   326     1015  3474               	retlw	116	;'t'
   327     1016  3474               	retlw	116	;'t'
   328     1017  3461               	retlw	97	;'a'
   329     1018  3420               	retlw	32	;' '
   330     1019  3420               	retlw	32	;' '
   331     101A  3420               	retlw	32	;' '
   332     101B  3420               	retlw	32	;' '
   333     101C  3420               	retlw	32	;' '
   334     101D  3420               	retlw	32	;' '
   335     101E  3420               	retlw	32	;' '
   336     101F  3420               	retlw	32	;' '
   337     1020  3420               	retlw	32	;' '
   338     1021  3420               	retlw	32	;' '
   339     1022  3420               	retlw	32	;' '
   340     1023  3400               	retlw	0
   341     1024                     STR_57:
   342     1024  3441               	retlw	65	;'A'
   343     1025  343A               	retlw	58	;':'
   344     1026  3420               	retlw	32	;' '
   345     1027  3441               	retlw	65	;'A'
   346     1028  3475               	retlw	117	;'u'
   347     1029  3474               	retlw	116	;'t'
   348     102A  346F               	retlw	111	;'o'
   349     102B  3420               	retlw	32	;' '
   350     102C  3420               	retlw	32	;' '
   351     102D  3420               	retlw	32	;' '
   352     102E  3420               	retlw	32	;' '
   353     102F  3420               	retlw	32	;' '
   354     1030  3420               	retlw	32	;' '
   355     1031  3420               	retlw	32	;' '
   356     1032  3420               	retlw	32	;' '
   357     1033  3420               	retlw	32	;' '
   358     1034  3420               	retlw	32	;' '
   359     1035  3400               	retlw	0
   360     1036                     STR_58:
   361     1036  3442               	retlw	66	;'B'
   362     1037  343A               	retlw	58	;':'
   363     1038  3420               	retlw	32	;' '
   364     1039  344D               	retlw	77	;'M'
   365     103A  3461               	retlw	97	;'a'
   366     103B  346E               	retlw	110	;'n'
   367     103C  3475               	retlw	117	;'u'
   368     103D  3461               	retlw	97	;'a'
   369     103E  346C               	retlw	108	;'l'
   370     103F  3420               	retlw	32	;' '
   371     1040  3420               	retlw	32	;' '
   372     1041  3420               	retlw	32	;' '
   373     1042  3420               	retlw	32	;' '
   374     1043  3420               	retlw	32	;' '
   375     1044  3420               	retlw	32	;' '
   376     1045  3420               	retlw	32	;' '
   377     1046  3420               	retlw	32	;' '
   378     1047  3400               	retlw	0
   379     1048                     STR_63:
   380     1048  3456               	retlw	86	;'V'
   381     1049  3469               	retlw	105	;'i'
   382     104A  346C               	retlw	108	;'l'
   383     104B  346C               	retlw	108	;'l'
   384     104C  3461               	retlw	97	;'a'
   385     104D  3420               	retlw	32	;' '
   386     104E  3420               	retlw	32	;' '
   387     104F  3420               	retlw	32	;' '
   388     1050  3420               	retlw	32	;' '
   389     1051  3420               	retlw	32	;' '
   390     1052  3420               	retlw	32	;' '
   391     1053  3420               	retlw	32	;' '
   392     1054  3420               	retlw	32	;' '
   393     1055  3420               	retlw	32	;' '
   394     1056  3420               	retlw	32	;' '
   395     1057  3420               	retlw	32	;' '
   396     1058  3400               	retlw	0
   397     1059                     STR_43:
   398     1059  344D               	retlw	77	;'M'
   399     105A  3461               	retlw	97	;'a'
   400     105B  3474               	retlw	116	;'t'
   401     105C  3461               	retlw	97	;'a'
   402     105D  3472               	retlw	114	;'r'
   403     105E  3469               	retlw	105	;'i'
   404     105F  3420               	retlw	32	;' '
   405     1060  3420               	retlw	32	;' '
   406     1061  3420               	retlw	32	;' '
   407     1062  3420               	retlw	32	;' '
   408     1063  3420               	retlw	32	;' '
   409     1064  3420               	retlw	32	;' '
   410     1065  3420               	retlw	32	;' '
   411     1066  3420               	retlw	32	;' '
   412     1067  3420               	retlw	32	;' '
   413     1068  3420               	retlw	32	;' '
   414     1069  3400               	retlw	0
   415     106A                     STR_55:
   416     106A  344D               	retlw	77	;'M'
   417     106B  3461               	retlw	97	;'a'
   418     106C  346E               	retlw	110	;'n'
   419     106D  3475               	retlw	117	;'u'
   420     106E  3461               	retlw	97	;'a'
   421     106F  346C               	retlw	108	;'l'
   422     1070  3420               	retlw	32	;' '
   423     1071  3420               	retlw	32	;' '
   424     1072  3420               	retlw	32	;' '
   425     1073  3420               	retlw	32	;' '
   426     1074  3420               	retlw	32	;' '
   427     1075  3420               	retlw	32	;' '
   428     1076  3420               	retlw	32	;' '
   429     1077  3420               	retlw	32	;' '
   430     1078  3420               	retlw	32	;' '
   431     1079  3420               	retlw	32	;' '
   432     107A  3400               	retlw	0
   433     107B                     STR_45:
   434     107B  3446               	retlw	70	;'F'
   435     107C  346C               	retlw	108	;'l'
   436     107D  346F               	retlw	111	;'o'
   437     107E  346B               	retlw	107	;'k'
   438     107F  346B               	retlw	107	;'k'
   439     1080  3461               	retlw	97	;'a'
   440     1081  3472               	retlw	114	;'r'
   441     1082  3469               	retlw	105	;'i'
   442     1083  3420               	retlw	32	;' '
   443     1084  3420               	retlw	32	;' '
   444     1085  3420               	retlw	32	;' '
   445     1086  3420               	retlw	32	;' '
   446     1087  3420               	retlw	32	;' '
   447     1088  3420               	retlw	32	;' '
   448     1089  3420               	retlw	32	;' '
   449     108A  3420               	retlw	32	;' '
   450     108B  3400               	retlw	0
   451     108C                     STR_47:
   452     108C  3479               	retlw	121	;'y'
   453     108D  3474               	retlw	116	;'t'
   454     108E  3461               	retlw	97	;'a'
   455     108F  3420               	retlw	32	;' '
   456     1090  3431               	retlw	49	;'1'
   457     1091  3420               	retlw	32	;' '
   458     1092  3475               	retlw	117	;'u'
   459     1093  3474               	retlw	116	;'t'
   460     1094  3420               	retlw	32	;' '
   461     1095  3420               	retlw	32	;' '
   462     1096  3420               	retlw	32	;' '
   463     1097  3420               	retlw	32	;' '
   464     1098  3420               	retlw	32	;' '
   465     1099  3420               	retlw	32	;' '
   466     109A  3420               	retlw	32	;' '
   467     109B  3420               	retlw	32	;' '
   468     109C  3400               	retlw	0
   469     109D                     STR_51:
   470     109D  3479               	retlw	121	;'y'
   471     109E  3474               	retlw	116	;'t'
   472     109F  3461               	retlw	97	;'a'
   473     10A0  3420               	retlw	32	;' '
   474     10A1  3432               	retlw	50	;'2'
   475     10A2  3420               	retlw	32	;' '
   476     10A3  3475               	retlw	117	;'u'
   477     10A4  3474               	retlw	116	;'t'
   478     10A5  3420               	retlw	32	;' '
   479     10A6  3420               	retlw	32	;' '
   480     10A7  3420               	retlw	32	;' '
   481     10A8  3420               	retlw	32	;' '
   482     10A9  3420               	retlw	32	;' '
   483     10AA  3420               	retlw	32	;' '
   484     10AB  3420               	retlw	32	;' '
   485     10AC  3420               	retlw	32	;' '
   486     10AD  3400               	retlw	0
   487     10AE                     STR_44:
   488     10AE  3446               	retlw	70	;'F'
   489     10AF  3461               	retlw	97	;'a'
   490     10B0  3465               	retlw	101	;'e'
   491     10B1  3472               	retlw	114	;'r'
   492     10B2  3469               	retlw	105	;'i'
   493     10B3  3462               	retlw	98	;'b'
   494     10B4  3461               	retlw	97	;'a'
   495     10B5  346E               	retlw	110	;'n'
   496     10B6  3464               	retlw	100	;'d'
   497     10B7  3420               	retlw	32	;' '
   498     10B8  3420               	retlw	32	;' '
   499     10B9  3420               	retlw	32	;' '
   500     10BA  3420               	retlw	32	;' '
   501     10BB  3420               	retlw	32	;' '
   502     10BC  3420               	retlw	32	;' '
   503     10BD  3420               	retlw	32	;' '
   504     10BE  3400               	retlw	0
   505     10BF                     STR_49:
   506     10BF  3479               	retlw	121	;'y'
   507     10C0  3474               	retlw	116	;'t'
   508     10C1  3461               	retlw	97	;'a'
   509     10C2  3420               	retlw	32	;' '
   510     10C3  3431               	retlw	49	;'1'
   511     10C4  3420               	retlw	32	;' '
   512     10C5  3468               	retlw	104	;'h'
   513     10C6  3465               	retlw	101	;'e'
   514     10C7  3469               	retlw	105	;'i'
   515     10C8  346D               	retlw	109	;'m'
   516     10C9  3420               	retlw	32	;' '
   517     10CA  3420               	retlw	32	;' '
   518     10CB  3420               	retlw	32	;' '
   519     10CC  3420               	retlw	32	;' '
   520     10CD  3420               	retlw	32	;' '
   521     10CE  3420               	retlw	32	;' '
   522     10CF  3400               	retlw	0
   523     10D0                     STR_53:
   524     10D0  3479               	retlw	121	;'y'
   525     10D1  3474               	retlw	116	;'t'
   526     10D2  3461               	retlw	97	;'a'
   527     10D3  3420               	retlw	32	;' '
   528     10D4  3432               	retlw	50	;'2'
   529     10D5  3420               	retlw	32	;' '
   530     10D6  3468               	retlw	104	;'h'
   531     10D7  3465               	retlw	101	;'e'
   532     10D8  3469               	retlw	105	;'i'
   533     10D9  346D               	retlw	109	;'m'
   534     10DA  3420               	retlw	32	;' '
   535     10DB  3420               	retlw	32	;' '
   536     10DC  3420               	retlw	32	;' '
   537     10DD  3420               	retlw	32	;' '
   538     10DE  3420               	retlw	32	;' '
   539     10DF  3420               	retlw	32	;' '
   540     10E0  3400               	retlw	0
   541     10E1                     STR_64:
   542     10E1  3456               	retlw	86	;'V'
   543     10E2  3465               	retlw	101	;'e'
   544     10E3  346C               	retlw	108	;'l'
   545     10E4  346A               	retlw	106	;'j'
   546     10E5  3461               	retlw	97	;'a'
   547     10E6  3420               	retlw	32	;' '
   548     10E7  3441               	retlw	65	;'A'
   549     10E8  3420               	retlw	32	;' '
   550     10E9  3465               	retlw	101	;'e'
   551     10EA  3464               	retlw	100	;'d'
   552     10EB  3461               	retlw	97	;'a'
   553     10EC  3420               	retlw	32	;' '
   554     10ED  3442               	retlw	66	;'B'
   555     10EE  3420               	retlw	32	;' '
   556     10EF  3420               	retlw	32	;' '
   557     10F0  3420               	retlw	32	;' '
   558     10F1  3400               	retlw	0
   559     10F2                     STR_41:
   560     10F2  3441               	retlw	65	;'A'
   561     10F3  346C               	retlw	108	;'l'
   562     10F4  346C               	retlw	108	;'l'
   563     10F5  3474               	retlw	116	;'t'
   564     10F6  3420               	retlw	32	;' '
   565     10F7  3465               	retlw	101	;'e'
   566     10F8  3472               	retlw	114	;'r'
   567     10F9  3420               	retlw	32	;' '
   568     10FA  3473               	retlw	115	;'s'
   569     10FB  3474               	retlw	116	;'t'
   570     10FC  346F               	retlw	111	;'o'
   571     10FD  3470               	retlw	112	;'p'
   572     10FE  3470               	retlw	112	;'p'
   573     10FF  3420               	retlw	32	;' '
   574     1100  3420               	retlw	32	;' '
   575     1101  3420               	retlw	32	;' '
   576     1102  3400               	retlw	0
   577     1103                     STR_42:
   578     1103  3430               	retlw	48	;'0'
   579     1104  3420               	retlw	32	;' '
   580     1105  3474               	retlw	116	;'t'
   581     1106  3469               	retlw	105	;'i'
   582     1107  346C               	retlw	108	;'l'
   583     1108  3420               	retlw	32	;' '
   584     1109  3461               	retlw	97	;'a'
   585     110A  3464               	retlw	100	;'d'
   586     110B  3420               	retlw	32	;' '
   587     110C  3473               	retlw	115	;'s'
   588     110D  3474               	retlw	116	;'t'
   589     110E  346F               	retlw	111	;'o'
   590     110F  3470               	retlw	112	;'p'
   591     1110  3470               	retlw	112	;'p'
   592     1111  3461               	retlw	97	;'a'
   593     1112  3420               	retlw	32	;' '
   594     1113  3400               	retlw	0
   595     1114                     STR_4:
   596     1114  3456               	retlw	86	;'V'
   597     1115  3465               	retlw	101	;'e'
   598     1116  346C               	retlw	108	;'l'
   599     1117  346A               	retlw	106	;'j'
   600     1118  3461               	retlw	97	;'a'
   601     1119  3420               	retlw	32	;' '
   602     111A  3431               	retlw	49	;'1'
   603     111B  342C               	retlw	44	;','
   604     111C  3432               	retlw	50	;'2'
   605     111D  3420               	retlw	32	;' '
   606     111E  3465               	retlw	101	;'e'
   607     111F  3464               	retlw	100	;'d'
   608     1120  3461               	retlw	97	;'a'
   609     1121  3420               	retlw	32	;' '
   610     1122  3433               	retlw	51	;'3'
   611     1123  3400               	retlw	0
   612     1124                     STR_22:
   613     1124  3430               	retlw	48	;'0'
   614     1125  3420               	retlw	32	;' '
   615     1126  3474               	retlw	116	;'t'
   616     1127  3469               	retlw	105	;'i'
   617     1128  346C               	retlw	108	;'l'
   618     1129  3420               	retlw	32	;' '
   619     112A  3461               	retlw	97	;'a'
   620     112B  3464               	retlw	100	;'d'
   621     112C  3420               	retlw	32	;' '
   622     112D  3468               	retlw	104	;'h'
   623     112E  3461               	retlw	97	;'a'
   624     112F  3465               	retlw	101	;'e'
   625     1130  3474               	retlw	116	;'t'
   626     1131  3474               	retlw	116	;'t'
   627     1132  3461               	retlw	97	;'a'
   628     1133  3400               	retlw	0
   629     1134                     STR_21:
   630     1134  3441               	retlw	65	;'A'
   631     1135  3420               	retlw	32	;' '
   632     1136  3474               	retlw	116	;'t'
   633     1137  3469               	retlw	105	;'i'
   634     1138  346C               	retlw	108	;'l'
   635     1139  3420               	retlw	32	;' '
   636     113A  3461               	retlw	97	;'a'
   637     113B  3464               	retlw	100	;'d'
   638     113C  3420               	retlw	32	;' '
   639     113D  3462               	retlw	98	;'b'
   640     113E  3479               	retlw	121	;'y'
   641     113F  3472               	retlw	114	;'r'
   642     1140  346A               	retlw	106	;'j'
   643     1141  3461               	retlw	97	;'a'
   644     1142  3400               	retlw	0
   645     1143                     STR_37:
   646     1143  3456               	retlw	86	;'V'
   647     1144  3469               	retlw	105	;'i'
   648     1145  346E               	retlw	110	;'n'
   649     1146  3473               	retlw	115	;'s'
   650     1147  346D               	retlw	109	;'m'
   651     1148  3461               	retlw	97	;'a'
   652     1149  346C               	retlw	108	;'l'
   653     114A  3465               	retlw	101	;'e'
   654     114B  3467               	retlw	103	;'g'
   655     114C  3461               	retlw	97	;'a'
   656     114D  3473               	retlw	115	;'s'
   657     114E  3474               	retlw	116	;'t'
   658     114F  3400               	retlw	0
   659     1150                     STR_19:
   660     1150  3456               	retlw	86	;'V'
   661     1151  3461               	retlw	97	;'a'
   662     1152  346E               	retlw	110	;'n'
   663     1153  3474               	retlw	116	;'t'
   664     1154  3461               	retlw	97	;'a'
   665     1155  3472               	retlw	114	;'r'
   666     1156  3420               	retlw	32	;' '
   667     1157  346B               	retlw	107	;'k'
   668     1158  3475               	retlw	117	;'u'
   669     1159  3462               	retlw	98	;'b'
   670     115A  3462               	retlw	98	;'b'
   671     115B  3400               	retlw	0
   672     115C                     STR_29:
   673     115C  344B               	retlw	75	;'K'
   674     115D  3465               	retlw	101	;'e'
   675     115E  3479               	retlw	121	;'y'
   676     115F  3472               	retlw	114	;'r'
   677     1160  3469               	retlw	105	;'i'
   678     1161  3472               	retlw	114	;'r'
   679     1162  342E               	retlw	46	;'.'
   680     1163  342E               	retlw	46	;'.'
   681     1164  342E               	retlw	46	;'.'
   682     1165  3400               	retlw	0
   683     1166                     STR_5:
   684     1166  344B               	retlw	75	;'K'
   685     1167  3461               	retlw	97	;'a'
   686     1168  3473               	retlw	115	;'s'
   687     1169  3473               	retlw	115	;'s'
   688     116A  3469               	retlw	105	;'i'
   689     116B  3420               	retlw	32	;' '
   690     116C  3431               	retlw	49	;'1'
   691     116D  343A               	retlw	58	;':'
   692     116E  3400               	retlw	0
   693     116F                     STR_8:
   694     116F  344B               	retlw	75	;'K'
   695     1170  3461               	retlw	97	;'a'
   696     1171  3473               	retlw	115	;'s'
   697     1172  3473               	retlw	115	;'s'
   698     1173  3469               	retlw	105	;'i'
   699     1174  3420               	retlw	32	;' '
   700     1175  3432               	retlw	50	;'2'
   701     1176  343A               	retlw	58	;':'
   702     1177  3400               	retlw	0
   703     1178                     STR_11:
   704     1178  344B               	retlw	75	;'K'
   705     1179  3461               	retlw	97	;'a'
   706     117A  3473               	retlw	115	;'s'
   707     117B  3473               	retlw	115	;'s'
   708     117C  3469               	retlw	105	;'i'
   709     117D  3420               	retlw	32	;' '
   710     117E  3433               	retlw	51	;'3'
   711     117F  343A               	retlw	58	;':'
   712     1180  3400               	retlw	0
   713     1181                     STR_14:
   714     1181  344B               	retlw	75	;'K'
   715     1182  3461               	retlw	97	;'a'
   716     1183  3473               	retlw	115	;'s'
   717     1184  3473               	retlw	115	;'s'
   718     1185  3469               	retlw	105	;'i'
   719     1186  3420               	retlw	32	;' '
   720     1187  3434               	retlw	52	;'4'
   721     1188  343A               	retlw	58	;':'
   722     1189  3400               	retlw	0
   723     118A                     STR_1:
   724     118A  3452               	retlw	82	;'R'
   725     118B  3465               	retlw	101	;'e'
   726     118C  3473               	retlw	115	;'s'
   727     118D  3465               	retlw	101	;'e'
   728     118E  3474               	retlw	116	;'t'
   729     118F  3469               	retlw	105	;'i'
   730     1190  346E               	retlw	110	;'n'
   731     1191  3467               	retlw	103	;'g'
   732     1192  3400               	retlw	0
   733     1193                     STR_32:
   734     1193  3450               	retlw	80	;'P'
   735     1194  3461               	retlw	97	;'a'
   736     1195  346C               	retlw	108	;'l'
   737     1196  346C               	retlw	108	;'l'
   738     1197  3475               	retlw	117	;'u'
   739     1198  3472               	retlw	114	;'r'
   740     1199  343A               	retlw	58	;':'
   741     119A  3400               	retlw	0
   742     119B                     STR_38:
   743     119B  3450               	retlw	80	;'P'
   744     119C  3461               	retlw	97	;'a'
   745     119D  346C               	retlw	108	;'l'
   746     119E  346C               	retlw	108	;'l'
   747     119F  3420               	retlw	32	;' '
   748     11A0  3433               	retlw	51	;'3'
   749     11A1  3400               	retlw	0
   750     11A2                     STR_30:
   751     11A2  344B               	retlw	75	;'K'
   752     11A3  3461               	retlw	97	;'a'
   753     11A4  3473               	retlw	115	;'s'
   754     11A5  3473               	retlw	115	;'s'
   755     11A6  3469               	retlw	105	;'i'
   756     11A7  343A               	retlw	58	;':'
   757     11A8  3400               	retlw	0
   758     1001                     
   759                           	psect	cinit
   760     07DB                     start_initialization:	
   761                           ; #config settings
   762                           
   763     07DB                     __initialization:
   764                           
   765                           ; Initialize objects allocated to BANK0
   766     07DB  120A  118A  2004  120A  118A  	fcall	__pidataBANK0	;fetch initializer
   767     07E0  00D8               	movwf	__pdataBANK0& (0+127)
   768     07E1  120A  118A  2005  120A  118A  	fcall	__pidataBANK0+1	;fetch initializer
   769     07E6  00D9               	movwf	(__pdataBANK0+1)& (0+127)
   770     07E7  120A  118A  2006  120A  118A  	fcall	__pidataBANK0+2	;fetch initializer
   771     07EC  00DA               	movwf	(__pdataBANK0+2)& (0+127)
   772     07ED  120A  118A  2007  120A  118A  	fcall	__pidataBANK0+3	;fetch initializer
   773     07F2  00DB               	movwf	(__pdataBANK0+3)& (0+127)
   774                           
   775                           ; Clear objects allocated to BANK0
   776     07F3  1383               	bcf	3,7	;select IRP bank0
   777     07F4  3020               	movlw	low __pbssBANK0
   778     07F5  0084               	movwf	4
   779     07F6  304C               	movlw	low (__pbssBANK0+44)
   780     07F7  120A  158A  229F  120A  118A  	fcall	clear_ram0
   781     07FC                     end_of_initialization:	
   782                           ;End of C runtime variable initialization code
   783                           
   784     07FC                     __end_of__initialization:
   785     07FC  0183               	clrf	3
   786     07FD  120A  158A  2BA2   	ljmp	_main	;jump to C main() function
   787                           
   788                           	psect	bssBANK0
   789     0020                     __pbssBANK0:
   790     0020                     _bakka:
   791     0020                     	ds	2
   792     0022                     _yta:
   793     0022                     	ds	2
   794     0024                     _tala:
   795     0024                     	ds	2
   796     0026                     _ManualRun:
   797     0026                     	ds	2
   798     0028                     _veljari:
   799     0028                     	ds	2
   800     002A                     _keyra:
   801     002A                     	ds	2
   802     002C                     _pallur:
   803     002C                     	ds	2
   804     002E                     _run:
   805     002E                     	ds	2
   806     0030                     _kubbur4:
   807     0030                     	ds	2
   808     0032                     _kubbur3:
   809     0032                     	ds	2
   810     0034                     _kubbur2:
   811     0034                     	ds	2
   812     0036                     _kubbur1:
   813     0036                     	ds	2
   814     0038                     _teljari:
   815     0038                     	ds	2
   816     003A                     _flickerA2:
   817     003A                     	ds	2
   818     003C                     _flicker2:
   819     003C                     	ds	2
   820     003E                     _flickerA1:
   821     003E                     	ds	2
   822     0040                     _flicker1:
   823     0040                     	ds	2
   824     0042                     _scan:
   825     0042                     	ds	2
   826     0044                     _segull:
   827     0044                     	ds	2
   828     0046                     _interrupt_ms:
   829     0046                     	ds	2
   830     0048                     _DebounceB:
   831     0048                     	ds	2
   832     004A                     _DebounceA:
   833     004A                     	ds	2
   834                           
   835                           	psect	dataBANK0
   836     0058                     __pdataBANK0:
   837     0058                     _flickermax:
   838     0058                     	ds	2
   839     005A                     _flickerspeed:
   840     005A                     	ds	2
   841                           
   842                           	psect	clrtext
   843     0A9F                     clear_ram0:	
   844                           ;	Called with FSR containing the base address, and
   845                           ;	W with the last address+1
   846                           
   847     0A9F  0064               	clrwdt	;clear the watchdog before getting into this loop
   848     0AA0                     clrloop0:
   849     0AA0  0180               	clrf	0	;clear RAM location pointed to by FSR
   850     0AA1  0A84               	incf	4,f	;increment pointer
   851     0AA2  0604               	xorwf	4,w	;XOR with final address
   852     0AA3  1903               	btfsc	3,2	;have we reached the end yet?
   853     0AA4  3400               	retlw	0	;all done for this memory range, return
   854     0AA5  0604               	xorwf	4,w	;XOR again to restore value
   855     0AA6  2AA0               	goto	clrloop0	;do the next byte
   856                           
   857                           	psect	cstackCOMMON
   858     0070                     __pcstackCOMMON:
   859     0070                     ?_lcd_goto:
   860     0070                     ?_lcd_write:	
   861                           ; 1 bytes @ 0x0
   862                           
   863     0070                     ??_lcd_write:	
   864                           ; 1 bytes @ 0x0
   865                           
   866     0070                     ?_lcd_clear:	
   867                           ; 1 bytes @ 0x0
   868                           
   869     0070                     ?_lcd_chr_cp:	
   870                           ; 1 bytes @ 0x0
   871                           
   872     0070                     ?_lcd_init:	
   873                           ; 1 bytes @ 0x0
   874                           
   875     0070                     ?_Val:	
   876                           ; 1 bytes @ 0x0
   877                           
   878     0070                     ?_A:	
   879                           ; 1 bytes @ 0x0
   880                           
   881     0070                     ?_B:	
   882                           ; 1 bytes @ 0x0
   883                           
   884     0070                     ?_main:	
   885                           ; 1 bytes @ 0x0
   886                           
   887     0070                     ?_reset:	
   888                           ; 1 bytes @ 0x0
   889                           
   890     0070                     ?_KeyPad:	
   891                           ; 2 bytes @ 0x0
   892                           
   893                           
   894                           ; 2 bytes @ 0x0
   895     0070                     	ds	2
   896     0072                     ??_KeyPad:
   897     0072                     lcd_write@c:	
   898                           ; 1 bytes @ 0x2
   899                           
   900                           
   901                           ; 1 bytes @ 0x2
   902     0072                     	ds	1
   903     0073                     ??_lcd_goto:
   904     0073                     ??_lcd_clear:	
   905                           ; 1 bytes @ 0x3
   906                           
   907     0073                     ??_lcd_chr_cp:	
   908                           ; 1 bytes @ 0x3
   909                           
   910     0073                     lcd_chr_cp@c:	
   911                           ; 1 bytes @ 0x3
   912                           
   913     0073                     lcd_goto@pos:	
   914                           ; 1 bytes @ 0x3
   915                           
   916                           
   917                           ; 1 bytes @ 0x3
   918     0073                     	ds	1
   919     0074                     ?_lcd_out:
   920     0074                     ?_lcd_chr:	
   921                           ; 1 bytes @ 0x4
   922                           
   923     0074                     lcd_out@character:	
   924                           ; 1 bytes @ 0x4
   925                           
   926     0074                     lcd_chr@character:	
   927                           ; 1 bytes @ 0x4
   928                           
   929     0074                     KeyPad@press:	
   930                           ; 1 bytes @ 0x4
   931                           
   932                           
   933                           ; 2 bytes @ 0x4
   934     0074                     	ds	1
   935     0075                     ??_lcd_init:
   936     0075                     lcd_chr@c:	
   937                           ; 1 bytes @ 0x5
   938                           
   939     0075                     lcd_out@s:	
   940                           ; 1 bytes @ 0x5
   941                           
   942                           
   943                           ; 2 bytes @ 0x5
   944     0075                     	ds	1
   945     0076                     ??_lcd_chr:
   946     0076                     KeyPad@tala:	
   947                           ; 1 bytes @ 0x6
   948                           
   949                           
   950                           ; 2 bytes @ 0x6
   951     0076                     	ds	1
   952     0077                     ??_lcd_out:
   953     0077                     lcd_chr@line:	
   954                           ; 1 bytes @ 0x7
   955                           
   956                           
   957                           ; 1 bytes @ 0x7
   958     0077                     	ds	1
   959     0078                     lcd_out@line:
   960     0078                     KeyPad@input:	
   961                           ; 1 bytes @ 0x8
   962                           
   963                           
   964                           ; 2 bytes @ 0x8
   965     0078                     	ds	1
   966     0079                     ??_reset:
   967                           
   968                           ; 1 bytes @ 0x9
   969     0079                     	ds	1
   970     007A                     ??_Val:
   971     007A                     ??_B:	
   972                           ; 1 bytes @ 0xA
   973                           
   974                           
   975                           ; 1 bytes @ 0xA
   976     007A                     	ds	3
   977                           
   978                           	psect	cstackBANK0
   979     004C                     __pcstackBANK0:
   980     004C                     Val@num:
   981     004C                     B@num:	
   982                           ; 2 bytes @ 0x0
   983                           
   984                           
   985                           ; 2 bytes @ 0x0
   986     004C                     	ds	2
   987     004E                     ??_A:
   988                           
   989                           ; 1 bytes @ 0x2
   990     004E                     	ds	3
   991     0051                     A@num:
   992                           
   993                           ; 2 bytes @ 0x5
   994     0051                     	ds	2
   995     0053                     ??_main:
   996                           
   997                           ; 1 bytes @ 0x7
   998     0053                     	ds	3
   999     0056                     main@num:
  1000                           
  1001                           ; 2 bytes @ 0xA
  1002     0056                     	ds	2
  1003                           
  1004                           	psect	maintext
  1005     0BA2                     __pmaintext:	
  1006 ;;
  1007 ;;Main: autosize = 0, tempsize = 3, incstack = 0, save=0
  1008 ;;
  1009 ;; *************** function _main *****************
  1010 ;; Defined at:
  1011 ;;		line 531 in file "Lokaverkefni.c"
  1012 ;; Parameters:    Size  Location     Type
  1013 ;;		None
  1014 ;; Auto vars:     Size  Location     Type
  1015 ;;  num             2   10[BANK0 ] int 
  1016 ;; Return value:  Size  Location     Type
  1017 ;;                  1    wreg      void 
  1018 ;; Registers used:
  1019 ;;		wreg, fsr0l, fsr0h, status,2, status,0, btemp+1, pclath, cstack
  1020 ;; Tracked objects:
  1021 ;;		On entry : B00/0
  1022 ;;		On exit  : 0/0
  1023 ;;		Unchanged: 0/0
  1024 ;; Data sizes:     COMMON   BANK0   BANK1   BANK3   BANK2
  1025 ;;      Params:         0       0       0       0       0
  1026 ;;      Locals:         0       2       0       0       0
  1027 ;;      Temps:          0       3       0       0       0
  1028 ;;      Totals:         0       5       0       0       0
  1029 ;;Total ram usage:        5 bytes
  1030 ;; Hardware stack levels required when called: 5
  1031 ;; This function calls:
  1032 ;;		_A
  1033 ;;		_B
  1034 ;;		_KeyPad
  1035 ;;		_lcd_init
  1036 ;;		_lcd_out
  1037 ;;		_reset
  1038 ;; This function is called by:
  1039 ;;		Startup code after reset
  1040 ;; This function uses a non-reentrant model
  1041 ;;
  1042                           
  1043     0BA2                     _main:	
  1044                           ;psect for function _main
  1045                           
  1046     0BA2                     l2462:	
  1047                           ;incstack = 0
  1048                           ; Regs used in _main: [wreg-fsr0h+status,2+status,0+btemp+1+pclath+cstack]
  1049                           
  1050     0BA2  3075               	movlw	117
  1051     0BA3  1683               	bsf	3,5	;RP0=1, select bank1
  1052     0BA4  1303               	bcf	3,6	;RP1=0, select bank1
  1053     0BA5  008F               	movwf	15	;volatile
  1054     0BA6                     l2464:
  1055     0BA6  1683               	bsf	3,5	;RP0=1, select bank3
  1056     0BA7  1703               	bsf	3,6	;RP1=1, select bank3
  1057     0BA8  0188               	clrf	8	;volatile
  1058     0BA9                     l2466:
  1059     0BA9  0189               	clrf	9	;volatile
  1060     0BAA                     l2468:
  1061     0BAA  1283               	bcf	3,5	;RP0=0, select bank2
  1062     0BAB  1703               	bsf	3,6	;RP1=1, select bank2
  1063     0BAC  0807               	movf	7,w	;volatile
  1064     0BAD  397F               	andlw	127
  1065     0BAE  0087               	movwf	7	;volatile
  1066     0BAF                     l2470:
  1067     0BAF  0808               	movf	8,w	;volatile
  1068     0BB0  397F               	andlw	127
  1069     0BB1  0088               	movwf	8	;volatile
  1070     0BB2                     l2472:
  1071     0BB2  018B               	clrf	11	;volatile
  1072     0BB3                     l2474:
  1073     0BB3  100B               	bcf	11,0	;volatile
  1074     0BB4                     l2476:
  1075     0BB4  158B               	bsf	11,3	;volatile
  1076     0BB5                     l2478:
  1077     0BB5  1683               	bsf	3,5	;RP0=1, select bank1
  1078     0BB6  1303               	bcf	3,6	;RP1=0, select bank1
  1079     0BB7  1716               	bsf	22,6	;volatile
  1080     0BB8                     l2480:
  1081     0BB8  1796               	bsf	22,7	;volatile
  1082     0BB9                     l2482:
  1083     0BB9  170B               	bsf	11,6	;volatile
  1084     0BBA                     l2484:
  1085     0BBA  168C               	bsf	12,5	;volatile
  1086     0BBB                     l2486:
  1087     0BBB  178B               	bsf	11,7	;volatile
  1088     0BBC                     l2488:
  1089     0BBC  1283               	bcf	3,5	;RP0=0, select bank0
  1090     0BBD  1303               	bcf	3,6	;RP1=0, select bank0
  1091     0BBE  0185               	clrf	5	;volatile
  1092     0BBF                     l2490:
  1093     0BBF  0186               	clrf	6	;volatile
  1094     0BC0                     l2492:
  1095     0BC0  0187               	clrf	7	;volatile
  1096     0BC1                     l2494:
  1097     0BC1  0188               	clrf	8	;volatile
  1098     0BC2                     l2496:
  1099     0BC2  0189               	clrf	9	;volatile
  1100     0BC3  30FF               	movlw	255
  1101     0BC4  1683               	bsf	3,5	;RP0=1, select bank1
  1102     0BC5  1303               	bcf	3,6	;RP1=0, select bank1
  1103     0BC6  0085               	movwf	5	;volatile
  1104     0BC7  30C0               	movlw	192
  1105     0BC8  0086               	movwf	6	;volatile
  1106     0BC9                     l2498:
  1107     0BC9  0187               	clrf	7	;volatile
  1108     0BCA                     l2500:
  1109     0BCA  30F0               	movlw	240
  1110     0BCB  0088               	movwf	8	;volatile
  1111     0BCC                     l2502:
  1112     0BCC  3001               	movlw	1
  1113     0BCD  0089               	movwf	9	;volatile
  1114     0BCE                     l2504:
  1115     0BCE  120A  158A  2346  120A  158A  	fcall	_lcd_init
  1116     0BD3                     l2506:
  1117     0BD3  120A  158A  230D  120A  158A  	fcall	_reset
  1118     0BD8                     l2508:
  1119     0BD8  1283               	bcf	3,5	;RP0=0, select bank0
  1120     0BD9  1303               	bcf	3,6	;RP1=0, select bank0
  1121     0BDA  0185               	clrf	5	;volatile
  1122     0BDB                     l2510:
  1123     0BDB  120A  158A  260A  120A  158A  	fcall	_KeyPad
  1124     0BE0  0871               	movf	?_KeyPad+1,w
  1125     0BE1  1283               	bcf	3,5	;RP0=0, select bank0
  1126     0BE2  1303               	bcf	3,6	;RP1=0, select bank0
  1127     0BE3  00D7               	movwf	main@num+1
  1128     0BE4  0870               	movf	?_KeyPad,w
  1129     0BE5  00D6               	movwf	main@num
  1130     0BE6                     l2512:
  1131     0BE6  0A56               	incf	main@num,w
  1132     0BE7  1D03               	skipz
  1133     0BE8  2BED               	goto	u2321
  1134     0BE9  0A57               	incf	main@num+1,w
  1135     0BEA  1D03               	btfss	3,2
  1136     0BEB  2BED               	goto	u2321
  1137     0BEC  2BEE               	goto	u2320
  1138     0BED                     u2321:
  1139     0BED  2C17               	goto	l2520
  1140     0BEE                     u2320:
  1141     0BEE                     l2514:
  1142     0BEE  01F4               	clrf	lcd_out@character
  1143     0BEF  0AF4               	incf	lcd_out@character,f
  1144     0BF0  3024               	movlw	low (STR_57| (0+32768))
  1145     0BF1  00F5               	movwf	lcd_out@s
  1146     0BF2  3090               	movlw	high (STR_57| (0+32768))
  1147     0BF3  00F6               	movwf	lcd_out@s+1
  1148     0BF4  3001               	movlw	1
  1149     0BF5  120A  118A  2014  120A  158A  	fcall	_lcd_out
  1150     0BFA  01F4               	clrf	lcd_out@character
  1151     0BFB  0AF4               	incf	lcd_out@character,f
  1152     0BFC  3036               	movlw	low (STR_58| (0+32768))
  1153     0BFD  00F5               	movwf	lcd_out@s
  1154     0BFE  3090               	movlw	high (STR_58| (0+32768))
  1155     0BFF  00F6               	movwf	lcd_out@s+1
  1156     0C00  3002               	movlw	2
  1157     0C01  120A  118A  2014  120A  158A  	fcall	_lcd_out
  1158     0C06                     l2516:
  1159     0C06  1283               	bcf	3,5	;RP0=0, select bank0
  1160     0C07  1303               	bcf	3,6	;RP1=0, select bank0
  1161     0C08  0187               	clrf	7	;volatile
  1162     0C09                     l2518:
  1163     0C09  3003               	movlw	3
  1164     0C0A  1283               	bcf	3,5	;RP0=0, select bank0
  1165     0C0B  1303               	bcf	3,6	;RP1=0, select bank0
  1166     0C0C  00D5               	movwf	??_main+2
  1167     0C0D  308A               	movlw	138
  1168     0C0E  00D4               	movwf	??_main+1
  1169     0C0F  3055               	movlw	85
  1170     0C10  00D3               	movwf	??_main
  1171     0C11                     u2397:
  1172     0C11  0BD3               	decfsz	??_main,f
  1173     0C12  2C11               	goto	u2397
  1174     0C13  0BD4               	decfsz	??_main+1,f
  1175     0C14  2C11               	goto	u2397
  1176     0C15  0BD5               	decfsz	??_main+2,f
  1177     0C16  2C11               	goto	u2397
  1178     0C17                     l2520:
  1179     0C17  300A               	movlw	10
  1180     0C18  1283               	bcf	3,5	;RP0=0, select bank0
  1181     0C19  1303               	bcf	3,6	;RP1=0, select bank0
  1182     0C1A  0656               	xorwf	main@num,w
  1183     0C1B  0457               	iorwf	main@num+1,w
  1184     0C1C  1D03               	btfss	3,2
  1185     0C1D  2C1F               	goto	u2331
  1186     0C1E  2C20               	goto	u2330
  1187     0C1F                     u2331:
  1188     0C1F  2C4C               	goto	l2526
  1189     0C20                     u2330:
  1190     0C20                     l2522:
  1191     0C20  01F4               	clrf	lcd_out@character
  1192     0C21  0AF4               	incf	lcd_out@character,f
  1193     0C22  3001               	movlw	low ((STR_33+1)| (0+32768))
  1194     0C23  00F5               	movwf	lcd_out@s
  1195     0C24  3090               	movlw	high ((STR_33+1)| (0+32768))
  1196     0C25  00F6               	movwf	lcd_out@s+1
  1197     0C26  3001               	movlw	1
  1198     0C27  120A  118A  2014  120A  158A  	fcall	_lcd_out
  1199     0C2C  01F4               	clrf	lcd_out@character
  1200     0C2D  0AF4               	incf	lcd_out@character,f
  1201     0C2E  3001               	movlw	low ((STR_33+1)| (0+32768))
  1202     0C2F  00F5               	movwf	lcd_out@s
  1203     0C30  3090               	movlw	high ((STR_33+1)| (0+32768))
  1204     0C31  00F6               	movwf	lcd_out@s+1
  1205     0C32  3002               	movlw	2
  1206     0C33  120A  118A  2014  120A  158A  	fcall	_lcd_out
  1207     0C38  120A  118A  235C  120A  158A  	fcall	_A
  1208     0C3D                     l2524:
  1209     0C3D  3003               	movlw	3
  1210     0C3E  1283               	bcf	3,5	;RP0=0, select bank0
  1211     0C3F  1303               	bcf	3,6	;RP1=0, select bank0
  1212     0C40  00D5               	movwf	??_main+2
  1213     0C41  308A               	movlw	138
  1214     0C42  00D4               	movwf	??_main+1
  1215     0C43  3055               	movlw	85
  1216     0C44  00D3               	movwf	??_main
  1217     0C45                     u2407:
  1218     0C45  0BD3               	decfsz	??_main,f
  1219     0C46  2C45               	goto	u2407
  1220     0C47  0BD4               	decfsz	??_main+1,f
  1221     0C48  2C45               	goto	u2407
  1222     0C49  0BD5               	decfsz	??_main+2,f
  1223     0C4A  2C45               	goto	u2407
  1224     0C4B  2C71               	goto	l2532
  1225     0C4C                     l2526:
  1226     0C4C  300B               	movlw	11
  1227     0C4D  0656               	xorwf	main@num,w
  1228     0C4E  0457               	iorwf	main@num+1,w
  1229     0C4F  1D03               	btfss	3,2
  1230     0C50  2C52               	goto	u2341
  1231     0C51  2C53               	goto	u2340
  1232     0C52                     u2341:
  1233     0C52  2C71               	goto	l2532
  1234     0C53                     u2340:
  1235     0C53                     l2528:
  1236     0C53  01F4               	clrf	lcd_out@character
  1237     0C54  0AF4               	incf	lcd_out@character,f
  1238     0C55  3001               	movlw	low ((STR_33+1)| (0+32768))
  1239     0C56  00F5               	movwf	lcd_out@s
  1240     0C57  3090               	movlw	high ((STR_33+1)| (0+32768))
  1241     0C58  00F6               	movwf	lcd_out@s+1
  1242     0C59  3001               	movlw	1
  1243     0C5A  120A  118A  2014  120A  158A  	fcall	_lcd_out
  1244     0C5F  01F4               	clrf	lcd_out@character
  1245     0C60  0AF4               	incf	lcd_out@character,f
  1246     0C61  3001               	movlw	low ((STR_33+1)| (0+32768))
  1247     0C62  00F5               	movwf	lcd_out@s
  1248     0C63  3090               	movlw	high ((STR_33+1)| (0+32768))
  1249     0C64  00F6               	movwf	lcd_out@s+1
  1250     0C65  3002               	movlw	2
  1251     0C66  120A  118A  2014  120A  158A  	fcall	_lcd_out
  1252     0C6B  120A  158A  24BA  120A  158A  	fcall	_B
  1253     0C70  2C3D               	goto	l2524
  1254     0C71                     l2532:
  1255     0C71  1283               	bcf	3,5	;RP0=0, select bank0
  1256     0C72  1303               	bcf	3,6	;RP1=0, select bank0
  1257     0C73  0A56               	incf	main@num,w
  1258     0C74  1D03               	skipz
  1259     0C75  2C7B               	goto	u2350
  1260     0C76  0A57               	incf	main@num+1,w
  1261     0C77  1903               	btfsc	3,2
  1262     0C78  2C7A               	goto	u2351
  1263     0C79  2C7B               	goto	u2350
  1264     0C7A                     u2351:
  1265     0C7A  2BD8               	goto	l2508
  1266     0C7B                     u2350:
  1267     0C7B                     l2534:
  1268     0C7B  300A               	movlw	10
  1269     0C7C  0656               	xorwf	main@num,w
  1270     0C7D  0457               	iorwf	main@num+1,w
  1271     0C7E  1903               	btfsc	3,2
  1272     0C7F  2C81               	goto	u2361
  1273     0C80  2C82               	goto	u2360
  1274     0C81                     u2361:
  1275     0C81  2BD8               	goto	l2508
  1276     0C82                     u2360:
  1277     0C82                     l2536:
  1278     0C82  300B               	movlw	11
  1279     0C83  0656               	xorwf	main@num,w
  1280     0C84  0457               	iorwf	main@num+1,w
  1281     0C85  1903               	btfsc	3,2
  1282     0C86  2C88               	goto	u2371
  1283     0C87  2C89               	goto	u2370
  1284     0C88                     u2371:
  1285     0C88  2BD8               	goto	l2508
  1286     0C89                     u2370:
  1287     0C89                     l2538:
  1288     0C89  300D               	movlw	13
  1289     0C8A  0656               	xorwf	main@num,w
  1290     0C8B  0457               	iorwf	main@num+1,w
  1291     0C8C  1903               	btfsc	3,2
  1292     0C8D  2C8F               	goto	u2381
  1293     0C8E  2C90               	goto	u2380
  1294     0C8F                     u2381:
  1295     0C8F  2BD8               	goto	l2508
  1296     0C90                     u2380:
  1297     0C90                     l2540:
  1298     0C90  01F4               	clrf	lcd_out@character
  1299     0C91  0AF4               	incf	lcd_out@character,f
  1300     0C92  3048               	movlw	low (STR_63| (0+32768))
  1301     0C93  00F5               	movwf	lcd_out@s
  1302     0C94  3090               	movlw	high (STR_63| (0+32768))
  1303     0C95  00F6               	movwf	lcd_out@s+1
  1304     0C96  3001               	movlw	1
  1305     0C97  120A  118A  2014  120A  158A  	fcall	_lcd_out
  1306     0C9C  01F4               	clrf	lcd_out@character
  1307     0C9D  0AF4               	incf	lcd_out@character,f
  1308     0C9E  30E1               	movlw	low (STR_64| (0+32768))
  1309     0C9F  00F5               	movwf	lcd_out@s
  1310     0CA0  3090               	movlw	high (STR_64| (0+32768))
  1311     0CA1  00F6               	movwf	lcd_out@s+1
  1312     0CA2  3002               	movlw	2
  1313     0CA3  120A  118A  2014  120A  158A  	fcall	_lcd_out
  1314     0CA8                     l2542:
  1315     0CA8  300B               	movlw	11
  1316     0CA9  1283               	bcf	3,5	;RP0=0, select bank0
  1317     0CAA  1303               	bcf	3,6	;RP1=0, select bank0
  1318     0CAB  00D5               	movwf	??_main+2
  1319     0CAC  3026               	movlw	38
  1320     0CAD  00D4               	movwf	??_main+1
  1321     0CAE  305D               	movlw	93
  1322     0CAF  00D3               	movwf	??_main
  1323     0CB0                     u2417:
  1324     0CB0  0BD3               	decfsz	??_main,f
  1325     0CB1  2CB0               	goto	u2417
  1326     0CB2  0BD4               	decfsz	??_main+1,f
  1327     0CB3  2CB0               	goto	u2417
  1328     0CB4  0BD5               	decfsz	??_main+2,f
  1329     0CB5  2CB0               	goto	u2417
  1330     0CB6  2BD8               	goto	l2508
  1331     0CB7  120A  118A  2800   	ljmp	start
  1332     0CBA                     __end_of_main:
  1333                           
  1334                           	psect	text1
  1335     0B46                     __ptext1:	
  1336 ;; *************** function _lcd_init *****************
  1337 ;; Defined at:
  1338 ;;		line 105 in file "./LCD.c"
  1339 ;; Parameters:    Size  Location     Type
  1340 ;;		None
  1341 ;; Auto vars:     Size  Location     Type
  1342 ;;		None
  1343 ;; Return value:  Size  Location     Type
  1344 ;;                  1    wreg      void 
  1345 ;; Registers used:
  1346 ;;		wreg, status,2, status,0, pclath, cstack
  1347 ;; Tracked objects:
  1348 ;;		On entry : 0/0
  1349 ;;		On exit  : 0/0
  1350 ;;		Unchanged: 0/0
  1351 ;; Data sizes:     COMMON   BANK0   BANK1   BANK3   BANK2
  1352 ;;      Params:         0       0       0       0       0
  1353 ;;      Locals:         0       0       0       0       0
  1354 ;;      Temps:          2       0       0       0       0
  1355 ;;      Totals:         2       0       0       0       0
  1356 ;;Total ram usage:        2 bytes
  1357 ;; Hardware stack levels used: 1
  1358 ;; Hardware stack levels required when called: 2
  1359 ;; This function calls:
  1360 ;;		_lcd_clear
  1361 ;;		_lcd_write
  1362 ;; This function is called by:
  1363 ;;		_main
  1364 ;; This function uses a non-reentrant model
  1365 ;;
  1366                           
  1367     0B46                     _lcd_init:	
  1368                           ;psect for function _lcd_init
  1369                           
  1370     0B46                     l2106:	
  1371                           ;incstack = 0
  1372                           ; Regs used in _lcd_init: [wreg+status,2+status,0+pclath+cstack]
  1373                           
  1374                           
  1375                           ;./LCD.c: 108:  ANSEL = 0x00;
  1376     0B46  1683               	bsf	3,5	;RP0=1, select bank3
  1377     0B47  1703               	bsf	3,6	;RP1=1, select bank3
  1378     0B48  0188               	clrf	8	;volatile
  1379                           
  1380                           ;./LCD.c: 109:  ANSELH = 0x00;
  1381     0B49  0189               	clrf	9	;volatile
  1382     0B4A                     l2108:
  1383                           
  1384                           ;./LCD.c: 110:  RB4 = 0;
  1385     0B4A  1283               	bcf	3,5	;RP0=0, select bank0
  1386     0B4B  1303               	bcf	3,6	;RP1=0, select bank0
  1387     0B4C  1206               	bcf	6,4	;volatile
  1388     0B4D                     l2110:
  1389                           
  1390                           ;./LCD.c: 111:  RB5 = 0;
  1391     0B4D  1286               	bcf	6,5	;volatile
  1392     0B4E                     l2112:
  1393                           
  1394                           ;./LCD.c: 112:  RB6 = 0;
  1395     0B4E  1306               	bcf	6,6	;volatile
  1396     0B4F                     l2114:
  1397                           
  1398                           ;./LCD.c: 114:  _delay((unsigned long)((20)*(8000000/4000.0)));
  1399     0B4F  3034               	movlw	52
  1400     0B50  00F6               	movwf	??_lcd_init+1
  1401     0B51  30F1               	movlw	241
  1402     0B52  00F5               	movwf	??_lcd_init
  1403     0B53                     u2427:
  1404     0B53  0BF5               	decfsz	??_lcd_init,f
  1405     0B54  2B53               	goto	u2427
  1406     0B55  0BF6               	decfsz	??_lcd_init+1,f
  1407     0B56  2B53               	goto	u2427
  1408     0B57  2B58               	nop2
  1409                           
  1410                           ;./LCD.c: 115:  PORTB = (PORTB & 0xF0) | ( 0x03 & 0x0F );
  1411     0B58  1283               	bcf	3,5	;RP0=0, select bank0
  1412     0B59  1303               	bcf	3,6	;RP1=0, select bank0
  1413     0B5A  0806               	movf	6,w	;volatile
  1414     0B5B  39F0               	andlw	240
  1415     0B5C  3803               	iorlw	3
  1416     0B5D  0086               	movwf	6	;volatile
  1417     0B5E                     l2116:
  1418                           
  1419                           ;./LCD.c: 117:  ((RB5 = 1),(RB5=0));
  1420     0B5E  1686               	bsf	6,5	;volatile
  1421     0B5F                     l2118:
  1422     0B5F  1286               	bcf	6,5	;volatile
  1423     0B60                     l2120:
  1424                           
  1425                           ;./LCD.c: 118:  _delay((unsigned long)((5)*(8000000/4000.0)));
  1426     0B60  300D               	movlw	13
  1427     0B61  00F6               	movwf	??_lcd_init+1
  1428     0B62  30FB               	movlw	251
  1429     0B63  00F5               	movwf	??_lcd_init
  1430     0B64                     u2437:
  1431     0B64  0BF5               	decfsz	??_lcd_init,f
  1432     0B65  2B64               	goto	u2437
  1433     0B66  0BF6               	decfsz	??_lcd_init+1,f
  1434     0B67  2B64               	goto	u2437
  1435     0B68  2B69               	nop2
  1436     0B69                     l2122:
  1437                           
  1438                           ;./LCD.c: 119:  ((RB5 = 1),(RB5=0));
  1439     0B69  1283               	bcf	3,5	;RP0=0, select bank0
  1440     0B6A  1303               	bcf	3,6	;RP1=0, select bank0
  1441     0B6B  1686               	bsf	6,5	;volatile
  1442     0B6C                     l2124:
  1443     0B6C  1286               	bcf	6,5	;volatile
  1444     0B6D                     l2126:
  1445                           
  1446                           ;./LCD.c: 120:  _delay((unsigned long)((200)*(8000000/4000000.0)));
  1447     0B6D  3085               	movlw	133
  1448     0B6E  00F5               	movwf	??_lcd_init
  1449     0B6F                     u2447:
  1450     0B6F  0BF5               	decfsz	??_lcd_init,f
  1451     0B70  2B6F               	goto	u2447
  1452     0B71                     l2128:
  1453                           
  1454                           ;./LCD.c: 121:  ((RB5 = 1),(RB5=0));
  1455     0B71  1283               	bcf	3,5	;RP0=0, select bank0
  1456     0B72  1303               	bcf	3,6	;RP1=0, select bank0
  1457     0B73  1686               	bsf	6,5	;volatile
  1458     0B74                     l2130:
  1459     0B74  1286               	bcf	6,5	;volatile
  1460     0B75                     l2132:
  1461                           
  1462                           ;./LCD.c: 122:  _delay((unsigned long)((200)*(8000000/4000000.0)));
  1463     0B75  3085               	movlw	133
  1464     0B76  00F5               	movwf	??_lcd_init
  1465     0B77                     u2457:
  1466     0B77  0BF5               	decfsz	??_lcd_init,f
  1467     0B78  2B77               	goto	u2457
  1468     0B79                     l2134:
  1469                           
  1470                           ;./LCD.c: 124:  PORTB = (PORTB & 0xF0) | ( 0x02 & 0x0F );
  1471     0B79  1283               	bcf	3,5	;RP0=0, select bank0
  1472     0B7A  1303               	bcf	3,6	;RP1=0, select bank0
  1473     0B7B  0806               	movf	6,w	;volatile
  1474     0B7C  39F0               	andlw	240
  1475     0B7D  3802               	iorlw	2
  1476     0B7E  0086               	movwf	6	;volatile
  1477     0B7F                     l2136:
  1478                           
  1479                           ;./LCD.c: 125:  ((RB5 = 1),(RB5=0));
  1480     0B7F  1686               	bsf	6,5	;volatile
  1481     0B80                     l2138:
  1482     0B80  1286               	bcf	6,5	;volatile
  1483                           
  1484                           ;./LCD.c: 126:  _delay((unsigned long)((5)*(8000000/4000.0)));
  1485     0B81  300D               	movlw	13
  1486     0B82  00F6               	movwf	??_lcd_init+1
  1487     0B83  30FB               	movlw	251
  1488     0B84  00F5               	movwf	??_lcd_init
  1489     0B85                     u2467:
  1490     0B85  0BF5               	decfsz	??_lcd_init,f
  1491     0B86  2B85               	goto	u2467
  1492     0B87  0BF6               	decfsz	??_lcd_init+1,f
  1493     0B88  2B85               	goto	u2467
  1494     0B89  2B8A               	nop2
  1495     0B8A                     l2140:
  1496                           
  1497                           ;./LCD.c: 128:  lcd_write(0x28);
  1498     0B8A  3028               	movlw	40
  1499     0B8B  120A  158A  22E0  120A  158A  	fcall	_lcd_write
  1500     0B90                     l2142:
  1501                           
  1502                           ;./LCD.c: 129:  lcd_clear();
  1503     0B90  120A  158A  22B2  120A  158A  	fcall	_lcd_clear
  1504     0B95                     l2144:
  1505                           
  1506                           ;./LCD.c: 130:  lcd_write(0x06);
  1507     0B95  3006               	movlw	6
  1508     0B96  120A  158A  22E0  120A  158A  	fcall	_lcd_write
  1509     0B9B                     l2146:
  1510                           
  1511                           ;./LCD.c: 131:  lcd_write(0x0C);
  1512     0B9B  300C               	movlw	12
  1513     0B9C  120A  158A  22E0  120A  158A  	fcall	_lcd_write
  1514     0BA1                     l115:
  1515     0BA1  0008               	return
  1516     0BA2                     __end_of_lcd_init:
  1517                           
  1518                           	psect	text2
  1519     0AB2                     __ptext2:	
  1520 ;; *************** function _lcd_clear *****************
  1521 ;; Defined at:
  1522 ;;		line 61 in file "./LCD.c"
  1523 ;; Parameters:    Size  Location     Type
  1524 ;;		None
  1525 ;; Auto vars:     Size  Location     Type
  1526 ;;		None
  1527 ;; Return value:  Size  Location     Type
  1528 ;;                  1    wreg      void 
  1529 ;; Registers used:
  1530 ;;		wreg, status,2, status,0, pclath, cstack
  1531 ;; Tracked objects:
  1532 ;;		On entry : 0/0
  1533 ;;		On exit  : 0/0
  1534 ;;		Unchanged: 0/0
  1535 ;; Data sizes:     COMMON   BANK0   BANK1   BANK3   BANK2
  1536 ;;      Params:         0       0       0       0       0
  1537 ;;      Locals:         0       0       0       0       0
  1538 ;;      Temps:          2       0       0       0       0
  1539 ;;      Totals:         2       0       0       0       0
  1540 ;;Total ram usage:        2 bytes
  1541 ;; Hardware stack levels used: 1
  1542 ;; Hardware stack levels required when called: 1
  1543 ;; This function calls:
  1544 ;;		_lcd_write
  1545 ;; This function is called by:
  1546 ;;		_lcd_init
  1547 ;; This function uses a non-reentrant model
  1548 ;;
  1549                           
  1550     0AB2                     _lcd_clear:	
  1551                           ;psect for function _lcd_clear
  1552                           
  1553     0AB2                     l1970:	
  1554                           ;incstack = 0
  1555                           ; Regs used in _lcd_clear: [wreg+status,2+status,0+pclath+cstack]
  1556                           
  1557                           
  1558                           ;./LCD.c: 63:  RB4 = 0;
  1559     0AB2  1283               	bcf	3,5	;RP0=0, select bank0
  1560     0AB3  1303               	bcf	3,6	;RP1=0, select bank0
  1561     0AB4  1206               	bcf	6,4	;volatile
  1562     0AB5                     l1972:
  1563                           
  1564                           ;./LCD.c: 64:  lcd_write(0x01);
  1565     0AB5  3001               	movlw	1
  1566     0AB6  120A  158A  22E0  120A  158A  	fcall	_lcd_write
  1567     0ABB                     l1974:
  1568                           
  1569                           ;./LCD.c: 65:  _delay((unsigned long)((2)*(8000000/4000.0)));
  1570     0ABB  3006               	movlw	6
  1571     0ABC  00F4               	movwf	??_lcd_clear+1
  1572     0ABD  3030               	movlw	48
  1573     0ABE  00F3               	movwf	??_lcd_clear
  1574     0ABF                     u2477:
  1575     0ABF  0BF3               	decfsz	??_lcd_clear,f
  1576     0AC0  2ABF               	goto	u2477
  1577     0AC1  0BF4               	decfsz	??_lcd_clear+1,f
  1578     0AC2  2ABF               	goto	u2477
  1579     0AC3  0000               	nop
  1580     0AC4                     l94:
  1581     0AC4  0008               	return
  1582     0AC5                     __end_of_lcd_clear:
  1583                           
  1584                           	psect	text3
  1585     0CBA                     __ptext3:	
  1586 ;; *************** function _B *****************
  1587 ;; Defined at:
  1588 ;;		line 479 in file "Lokaverkefni.c"
  1589 ;; Parameters:    Size  Location     Type
  1590 ;;		None
  1591 ;; Auto vars:     Size  Location     Type
  1592 ;;  num             2    0[BANK0 ] int 
  1593 ;; Return value:  Size  Location     Type
  1594 ;;                  1    wreg      void 
  1595 ;; Registers used:
  1596 ;;		wreg, fsr0l, fsr0h, status,2, status,0, btemp+1, pclath, cstack
  1597 ;; Tracked objects:
  1598 ;;		On entry : 0/0
  1599 ;;		On exit  : 0/0
  1600 ;;		Unchanged: 0/0
  1601 ;; Data sizes:     COMMON   BANK0   BANK1   BANK3   BANK2
  1602 ;;      Params:         0       0       0       0       0
  1603 ;;      Locals:         0       2       0       0       0
  1604 ;;      Temps:          3       0       0       0       0
  1605 ;;      Totals:         3       2       0       0       0
  1606 ;;Total ram usage:        5 bytes
  1607 ;; Hardware stack levels used: 1
  1608 ;; Hardware stack levels required when called: 4
  1609 ;; This function calls:
  1610 ;;		_KeyPad
  1611 ;;		_lcd_out
  1612 ;;		_reset
  1613 ;; This function is called by:
  1614 ;;		_main
  1615 ;; This function uses a non-reentrant model
  1616 ;;
  1617                           
  1618     0CBA                     _B:	
  1619                           ;psect for function _B
  1620                           
  1621     0CBA                     l2398:	
  1622                           ;incstack = 0
  1623                           ; Regs used in _B: [wreg-fsr0h+status,2+status,0+btemp+1+pclath+cstack]
  1624                           
  1625                           
  1626                           ;Lokaverkefni.c: 481:     RCIE = 1;
  1627     0CBA  3001               	movlw	1
  1628     0CBB  1283               	bcf	3,5	;RP0=0, select bank0
  1629     0CBC  1303               	bcf	3,6	;RP1=0, select bank0
  1630     0CBD  00A6               	movwf	_ManualRun
  1631     0CBE  3000               	movlw	0
  1632     0CBF  00A7               	movwf	_ManualRun+1
  1633     0CC0                     l2400:
  1634                           
  1635                           ;Lokaverkefni.c: 483: ;Lokaverkefni.c: 484:  PORTA = 0x00;
  1636     0CC0  120A  158A  260A  120A  158A  	fcall	_KeyPad
  1637     0CC5  0871               	movf	?_KeyPad+1,w
  1638     0CC6  1283               	bcf	3,5	;RP0=0, select bank0
  1639     0CC7  1303               	bcf	3,6	;RP1=0, select bank0
  1640     0CC8  00CD               	movwf	B@num+1
  1641     0CC9  0870               	movf	?_KeyPad,w
  1642     0CCA  00CC               	movwf	B@num
  1643     0CCB                     l2402:
  1644                           
  1645                           ;Lokaverkefni.c: 485:  PORTB = 0x00;
  1646     0CCB  0A4C               	incf	B@num,w
  1647     0CCC  1D03               	skipz
  1648     0CCD  2CD2               	goto	u2231
  1649     0CCE  0A4D               	incf	B@num+1,w
  1650     0CCF  1D03               	btfss	3,2
  1651     0CD0  2CD2               	goto	u2231
  1652     0CD1  2CD3               	goto	u2230
  1653     0CD2                     u2231:
  1654     0CD2  2CEF               	goto	l2408
  1655     0CD3                     u2230:
  1656     0CD3                     l2404:
  1657                           
  1658                           ;Lokaverkefni.c: 486:  PORTC = 0x00;
  1659     0CD3  01F4               	clrf	lcd_out@character
  1660     0CD4  0AF4               	incf	lcd_out@character,f
  1661     0CD5  30F2               	movlw	low (STR_41| (0+32768))
  1662     0CD6  00F5               	movwf	lcd_out@s
  1663     0CD7  3090               	movlw	high (STR_41| (0+32768))
  1664     0CD8  00F6               	movwf	lcd_out@s+1
  1665     0CD9  3001               	movlw	1
  1666     0CDA  120A  118A  2014  120A  158A  	fcall	_lcd_out
  1667                           
  1668                           ;Lokaverkefni.c: 487:  PORTD = 0x00;
  1669     0CDF  01F4               	clrf	lcd_out@character
  1670     0CE0  0AF4               	incf	lcd_out@character,f
  1671     0CE1  3003               	movlw	low (STR_42| (0+32768))
  1672     0CE2  00F5               	movwf	lcd_out@s
  1673     0CE3  3091               	movlw	high (STR_42| (0+32768))
  1674     0CE4  00F6               	movwf	lcd_out@s+1
  1675     0CE5  3002               	movlw	2
  1676     0CE6  120A  118A  2014  120A  158A  	fcall	_lcd_out
  1677     0CEB                     l2406:
  1678                           
  1679                           ;Lokaverkefni.c: 488:  PORTE = 0x00;
  1680     0CEB  1283               	bcf	3,5	;RP0=0, select bank0
  1681     0CEC  1303               	bcf	3,6	;RP1=0, select bank0
  1682     0CED  0187               	clrf	7	;volatile
  1683                           
  1684                           ;Lokaverkefni.c: 489: 
  1685     0CEE  2E01               	goto	l2456
  1686     0CEF                     l2408:
  1687     0CEF  034C               	decf	B@num,w
  1688     0CF0  044D               	iorwf	B@num+1,w
  1689     0CF1  1D03               	btfss	3,2
  1690     0CF2  2CF4               	goto	u2241
  1691     0CF3  2CF5               	goto	u2240
  1692     0CF4                     u2241:
  1693     0CF4  2D11               	goto	l2414
  1694     0CF5                     u2240:
  1695     0CF5                     l2410:
  1696                           
  1697                           ;Lokaverkefni.c: 491:  TRISB = 0xC0;
  1698     0CF5  01F4               	clrf	lcd_out@character
  1699     0CF6  0AF4               	incf	lcd_out@character,f
  1700     0CF7  3059               	movlw	low (STR_43| (0+32768))
  1701     0CF8  00F5               	movwf	lcd_out@s
  1702     0CF9  3090               	movlw	high (STR_43| (0+32768))
  1703     0CFA  00F6               	movwf	lcd_out@s+1
  1704     0CFB  3001               	movlw	1
  1705     0CFC  120A  118A  2014  120A  158A  	fcall	_lcd_out
  1706                           
  1707                           ;Lokaverkefni.c: 492:  TRISC = 0x00;
  1708     0D01  01F4               	clrf	lcd_out@character
  1709     0D02  0AF4               	incf	lcd_out@character,f
  1710     0D03  30AE               	movlw	low (STR_44| (0+32768))
  1711     0D04  00F5               	movwf	lcd_out@s
  1712     0D05  3090               	movlw	high (STR_44| (0+32768))
  1713     0D06  00F6               	movwf	lcd_out@s+1
  1714     0D07  3002               	movlw	2
  1715     0D08  120A  118A  2014  120A  158A  	fcall	_lcd_out
  1716     0D0D                     l2412:
  1717                           
  1718                           ;Lokaverkefni.c: 493:  TRISD = 0xF0;
  1719     0D0D  1283               	bcf	3,5	;RP0=0, select bank0
  1720     0D0E  1303               	bcf	3,6	;RP1=0, select bank0
  1721     0D0F  1407               	bsf	7,0	;volatile
  1722                           
  1723                           ;Lokaverkefni.c: 494:  TRISE = 0x01;
  1724     0D10  2E01               	goto	l2456
  1725     0D11                     l2414:
  1726     0D11  3002               	movlw	2
  1727     0D12  064C               	xorwf	B@num,w
  1728     0D13  044D               	iorwf	B@num+1,w
  1729     0D14  1D03               	btfss	3,2
  1730     0D15  2D17               	goto	u2251
  1731     0D16  2D18               	goto	u2250
  1732     0D17                     u2251:
  1733     0D17  2D34               	goto	l2420
  1734     0D18                     u2250:
  1735     0D18                     l2416:
  1736                           
  1737                           ;Lokaverkefni.c: 496:  lcd_init();
  1738     0D18  01F4               	clrf	lcd_out@character
  1739     0D19  0AF4               	incf	lcd_out@character,f
  1740     0D1A  307B               	movlw	low (STR_45| (0+32768))
  1741     0D1B  00F5               	movwf	lcd_out@s
  1742     0D1C  3090               	movlw	high (STR_45| (0+32768))
  1743     0D1D  00F6               	movwf	lcd_out@s+1
  1744     0D1E  3001               	movlw	1
  1745     0D1F  120A  118A  2014  120A  158A  	fcall	_lcd_out
  1746                           
  1747                           ;Lokaverkefni.c: 497: 
  1748     0D24  01F4               	clrf	lcd_out@character
  1749     0D25  0AF4               	incf	lcd_out@character,f
  1750     0D26  30AE               	movlw	low (STR_44| (0+32768))
  1751     0D27  00F5               	movwf	lcd_out@s
  1752     0D28  3090               	movlw	high (STR_44| (0+32768))
  1753     0D29  00F6               	movwf	lcd_out@s+1
  1754     0D2A  3002               	movlw	2
  1755     0D2B  120A  118A  2014  120A  158A  	fcall	_lcd_out
  1756     0D30                     l2418:
  1757                           
  1758                           ;Lokaverkefni.c: 498:     reset();
  1759     0D30  1283               	bcf	3,5	;RP0=0, select bank0
  1760     0D31  1303               	bcf	3,6	;RP1=0, select bank0
  1761     0D32  1487               	bsf	7,1	;volatile
  1762                           
  1763                           ;Lokaverkefni.c: 499: 
  1764     0D33  2E01               	goto	l2456
  1765     0D34                     l2420:
  1766     0D34  3003               	movlw	3
  1767     0D35  064C               	xorwf	B@num,w
  1768     0D36  044D               	iorwf	B@num+1,w
  1769     0D37  1D03               	btfss	3,2
  1770     0D38  2D3A               	goto	u2261
  1771     0D39  2D3B               	goto	u2260
  1772     0D3A                     u2261:
  1773     0D3A  2D57               	goto	l2426
  1774     0D3B                     u2260:
  1775     0D3B                     l2422:
  1776                           
  1777                           ;Lokaverkefni.c: 501:         int num;
  1778     0D3B  01F4               	clrf	lcd_out@character
  1779     0D3C  0AF4               	incf	lcd_out@character,f
  1780     0D3D  308C               	movlw	low (STR_47| (0+32768))
  1781     0D3E  00F5               	movwf	lcd_out@s
  1782     0D3F  3090               	movlw	high (STR_47| (0+32768))
  1783     0D40  00F6               	movwf	lcd_out@s+1
  1784     0D41  3001               	movlw	1
  1785     0D42  120A  118A  2014  120A  158A  	fcall	_lcd_out
  1786                           
  1787                           ;Lokaverkefni.c: 502:         PORTA = 0x00;
  1788     0D47  01F4               	clrf	lcd_out@character
  1789     0D48  0AF4               	incf	lcd_out@character,f
  1790     0D49  3001               	movlw	low ((STR_33+1)| (0+32768))
  1791     0D4A  00F5               	movwf	lcd_out@s
  1792     0D4B  3090               	movlw	high ((STR_33+1)| (0+32768))
  1793     0D4C  00F6               	movwf	lcd_out@s+1
  1794     0D4D  3002               	movlw	2
  1795     0D4E  120A  118A  2014  120A  158A  	fcall	_lcd_out
  1796     0D53                     l2424:
  1797                           
  1798                           ;Lokaverkefni.c: 503:         num = KeyPad();
  1799     0D53  1283               	bcf	3,5	;RP0=0, select bank0
  1800     0D54  1303               	bcf	3,6	;RP1=0, select bank0
  1801     0D55  1507               	bsf	7,2	;volatile
  1802                           
  1803                           ;Lokaverkefni.c: 504:         if(num == -1){
  1804     0D56  2E01               	goto	l2456
  1805     0D57                     l2426:
  1806     0D57  3004               	movlw	4
  1807     0D58  064C               	xorwf	B@num,w
  1808     0D59  044D               	iorwf	B@num+1,w
  1809     0D5A  1D03               	btfss	3,2
  1810     0D5B  2D5D               	goto	u2271
  1811     0D5C  2D5E               	goto	u2270
  1812     0D5D                     u2271:
  1813     0D5D  2D7A               	goto	l2432
  1814     0D5E                     u2270:
  1815     0D5E                     l2428:
  1816                           
  1817                           ;Lokaverkefni.c: 506:             lcd_out(2,1,"B: Manual        ");
  1818     0D5E  01F4               	clrf	lcd_out@character
  1819     0D5F  0AF4               	incf	lcd_out@character,f
  1820     0D60  30BF               	movlw	low (STR_49| (0+32768))
  1821     0D61  00F5               	movwf	lcd_out@s
  1822     0D62  3090               	movlw	high (STR_49| (0+32768))
  1823     0D63  00F6               	movwf	lcd_out@s+1
  1824     0D64  3001               	movlw	1
  1825     0D65  120A  118A  2014  120A  158A  	fcall	_lcd_out
  1826                           
  1827                           ;Lokaverkefni.c: 507:             PORTC = 0;
  1828     0D6A  01F4               	clrf	lcd_out@character
  1829     0D6B  0AF4               	incf	lcd_out@character,f
  1830     0D6C  3001               	movlw	low ((STR_33+1)| (0+32768))
  1831     0D6D  00F5               	movwf	lcd_out@s
  1832     0D6E  3090               	movlw	high ((STR_33+1)| (0+32768))
  1833     0D6F  00F6               	movwf	lcd_out@s+1
  1834     0D70  3002               	movlw	2
  1835     0D71  120A  118A  2014  120A  158A  	fcall	_lcd_out
  1836     0D76                     l2430:
  1837                           
  1838                           ;Lokaverkefni.c: 508:             _delay((unsigned long)((250)*(8000000/4000.0)));
  1839     0D76  1283               	bcf	3,5	;RP0=0, select bank0
  1840     0D77  1303               	bcf	3,6	;RP1=0, select bank0
  1841     0D78  1587               	bsf	7,3	;volatile
  1842                           
  1843                           ;Lokaverkefni.c: 509:         }
  1844     0D79  2E01               	goto	l2456
  1845     0D7A                     l2432:
  1846     0D7A  3005               	movlw	5
  1847     0D7B  064C               	xorwf	B@num,w
  1848     0D7C  044D               	iorwf	B@num+1,w
  1849     0D7D  1D03               	btfss	3,2
  1850     0D7E  2D80               	goto	u2281
  1851     0D7F  2D81               	goto	u2280
  1852     0D80                     u2281:
  1853     0D80  2D9D               	goto	l2438
  1854     0D81                     u2280:
  1855     0D81                     l2434:
  1856                           
  1857                           ;Lokaverkefni.c: 511:             lcd_out(1,1, "                ");
  1858     0D81  01F4               	clrf	lcd_out@character
  1859     0D82  0AF4               	incf	lcd_out@character,f
  1860     0D83  309D               	movlw	low (STR_51| (0+32768))
  1861     0D84  00F5               	movwf	lcd_out@s
  1862     0D85  3090               	movlw	high (STR_51| (0+32768))
  1863     0D86  00F6               	movwf	lcd_out@s+1
  1864     0D87  3001               	movlw	1
  1865     0D88  120A  118A  2014  120A  158A  	fcall	_lcd_out
  1866                           
  1867                           ;Lokaverkefni.c: 512:             lcd_out(2,1, "                ");
  1868     0D8D  01F4               	clrf	lcd_out@character
  1869     0D8E  0AF4               	incf	lcd_out@character,f
  1870     0D8F  3001               	movlw	low ((STR_33+1)| (0+32768))
  1871     0D90  00F5               	movwf	lcd_out@s
  1872     0D91  3090               	movlw	high ((STR_33+1)| (0+32768))
  1873     0D92  00F6               	movwf	lcd_out@s+1
  1874     0D93  3002               	movlw	2
  1875     0D94  120A  118A  2014  120A  158A  	fcall	_lcd_out
  1876     0D99                     l2436:
  1877                           
  1878                           ;Lokaverkefni.c: 513:             A();
  1879     0D99  1283               	bcf	3,5	;RP0=0, select bank0
  1880     0D9A  1303               	bcf	3,6	;RP1=0, select bank0
  1881     0D9B  1607               	bsf	7,4	;volatile
  1882                           
  1883                           ;Lokaverkefni.c: 514:             _delay((unsigned long)((250)*(8000000/4000.0)));
  1884     0D9C  2E01               	goto	l2456
  1885     0D9D                     l2438:
  1886     0D9D  3006               	movlw	6
  1887     0D9E  064C               	xorwf	B@num,w
  1888     0D9F  044D               	iorwf	B@num+1,w
  1889     0DA0  1D03               	btfss	3,2
  1890     0DA1  2DA3               	goto	u2291
  1891     0DA2  2DA4               	goto	u2290
  1892     0DA3                     u2291:
  1893     0DA3  2DC0               	goto	l2444
  1894     0DA4                     u2290:
  1895     0DA4                     l2440:
  1896                           
  1897                           ;Lokaverkefni.c: 516:         else if(num == 11){
  1898     0DA4  01F4               	clrf	lcd_out@character
  1899     0DA5  0AF4               	incf	lcd_out@character,f
  1900     0DA6  30D0               	movlw	low (STR_53| (0+32768))
  1901     0DA7  00F5               	movwf	lcd_out@s
  1902     0DA8  3090               	movlw	high (STR_53| (0+32768))
  1903     0DA9  00F6               	movwf	lcd_out@s+1
  1904     0DAA  3001               	movlw	1
  1905     0DAB  120A  118A  2014  120A  158A  	fcall	_lcd_out
  1906                           
  1907                           ;Lokaverkefni.c: 517:             lcd_out(1,1, "                ");
  1908     0DB0  01F4               	clrf	lcd_out@character
  1909     0DB1  0AF4               	incf	lcd_out@character,f
  1910     0DB2  3001               	movlw	low ((STR_33+1)| (0+32768))
  1911     0DB3  00F5               	movwf	lcd_out@s
  1912     0DB4  3090               	movlw	high ((STR_33+1)| (0+32768))
  1913     0DB5  00F6               	movwf	lcd_out@s+1
  1914     0DB6  3002               	movlw	2
  1915     0DB7  120A  118A  2014  120A  158A  	fcall	_lcd_out
  1916     0DBC                     l2442:
  1917                           
  1918                           ;Lokaverkefni.c: 518:             lcd_out(2,1, "                ");
  1919     0DBC  1283               	bcf	3,5	;RP0=0, select bank0
  1920     0DBD  1303               	bcf	3,6	;RP1=0, select bank0
  1921     0DBE  1687               	bsf	7,5	;volatile
  1922                           
  1923                           ;Lokaverkefni.c: 519:             B();
  1924     0DBF  2E01               	goto	l2456
  1925     0DC0                     l2444:
  1926     0DC0  084C               	movf	B@num,w
  1927     0DC1  044D               	iorwf	B@num+1,w
  1928     0DC2  1D03               	btfss	3,2
  1929     0DC3  2DC5               	goto	u2301
  1930     0DC4  2DC6               	goto	u2300
  1931     0DC5                     u2301:
  1932     0DC5  2E01               	goto	l332
  1933     0DC6                     u2300:
  1934     0DC6                     l2446:
  1935                           
  1936                           ;Lokaverkefni.c: 521:         }
  1937     0DC6  01F4               	clrf	lcd_out@character
  1938     0DC7  0AF4               	incf	lcd_out@character,f
  1939     0DC8  306A               	movlw	low (STR_55| (0+32768))
  1940     0DC9  00F5               	movwf	lcd_out@s
  1941     0DCA  3090               	movlw	high (STR_55| (0+32768))
  1942     0DCB  00F6               	movwf	lcd_out@s+1
  1943     0DCC  3001               	movlw	1
  1944     0DCD  120A  118A  2014  120A  158A  	fcall	_lcd_out
  1945                           
  1946                           ;Lokaverkefni.c: 522:        if(num != -1 && num != 10 && num != 11 && num != 13){
  1947     0DD2  01F4               	clrf	lcd_out@character
  1948     0DD3  0AF4               	incf	lcd_out@character,f
  1949     0DD4  3012               	movlw	low (STR_56| (0+32768))
  1950     0DD5  00F5               	movwf	lcd_out@s
  1951     0DD6  3090               	movlw	high (STR_56| (0+32768))
  1952     0DD7  00F6               	movwf	lcd_out@s+1
  1953     0DD8  3002               	movlw	2
  1954     0DD9  120A  118A  2014  120A  158A  	fcall	_lcd_out
  1955     0DDE                     l2448:
  1956                           
  1957                           ;Lokaverkefni.c: 523:             lcd_out(1,1, "Villa           ");
  1958     0DDE  3004               	movlw	4
  1959     0DDF  00FC               	movwf	??_B+2
  1960     0DE0  308E               	movlw	142
  1961     0DE1  00FB               	movwf	??_B+1
  1962     0DE2  3012               	movlw	18
  1963     0DE3  00FA               	movwf	??_B
  1964     0DE4                     u2487:
  1965     0DE4  0BFA               	decfsz	??_B,f
  1966     0DE5  2DE4               	goto	u2487
  1967     0DE6  0BFB               	decfsz	??_B+1,f
  1968     0DE7  2DE4               	goto	u2487
  1969     0DE8  0BFC               	decfsz	??_B+2,f
  1970     0DE9  2DE4               	goto	u2487
  1971     0DEA  0000               	nop
  1972     0DEB                     l2450:
  1973                           
  1974                           ;Lokaverkefni.c: 524:             lcd_out(2,1, "Velja A eda B   ");
  1975     0DEB  1283               	bcf	3,5	;RP0=0, select bank0
  1976     0DEC  1303               	bcf	3,6	;RP1=0, select bank0
  1977     0DED  01A6               	clrf	_ManualRun
  1978     0DEE  01A7               	clrf	_ManualRun+1
  1979     0DEF                     l2452:
  1980                           
  1981                           ;Lokaverkefni.c: 525:             _delay((unsigned long)((1000)*(8000000/4000.0)));
  1982     0DEF  120A  158A  230D  120A  158A  	fcall	_reset
  1983     0DF4                     l2454:
  1984                           
  1985                           ;Lokaverkefni.c: 526:         }
  1986     0DF4  3002               	movlw	2
  1987     0DF5  00FC               	movwf	??_B+2
  1988     0DF6  3086               	movlw	134
  1989     0DF7  00FB               	movwf	??_B+1
  1990     0DF8  3099               	movlw	153
  1991     0DF9  00FA               	movwf	??_B
  1992     0DFA                     u2497:
  1993     0DFA  0BFA               	decfsz	??_B,f
  1994     0DFB  2DFA               	goto	u2497
  1995     0DFC  0BFB               	decfsz	??_B+1,f
  1996     0DFD  2DFA               	goto	u2497
  1997     0DFE  0BFC               	decfsz	??_B+2,f
  1998     0DFF  2DFA               	goto	u2497
  1999     0E00  2E01               	goto	l2456
  2000     0E01                     l332:
  2001     0E01                     l2456:
  2002                           
  2003                           ;Lokaverkefni.c: 528: }
  2004     0E01  1283               	bcf	3,5	;RP0=0, select bank0
  2005     0E02  1303               	bcf	3,6	;RP1=0, select bank0
  2006     0E03  0326               	decf	_ManualRun,w
  2007     0E04  0427               	iorwf	_ManualRun+1,w
  2008     0E05  1903               	btfsc	3,2
  2009     0E06  2E08               	goto	u2311
  2010     0E07  2E09               	goto	u2310
  2011     0E08                     u2311:
  2012     0E08  2CC0               	goto	l2400
  2013     0E09                     u2310:
  2014     0E09                     l339:
  2015     0E09  0008               	return
  2016     0E0A                     __end_of_B:
  2017                           
  2018                           	psect	text4
  2019     0B0D                     __ptext4:	
  2020 ;; *************** function _reset *****************
  2021 ;; Defined at:
  2022 ;;		line 87 in file "Lokaverkefni.c"
  2023 ;; Parameters:    Size  Location     Type
  2024 ;;		None
  2025 ;; Auto vars:     Size  Location     Type
  2026 ;;		None
  2027 ;; Return value:  Size  Location     Type
  2028 ;;                  2  167[None  ] int 
  2029 ;; Registers used:
  2030 ;;		wreg, fsr0l, fsr0h, status,2, status,0, btemp+1, pclath, cstack
  2031 ;; Tracked objects:
  2032 ;;		On entry : 0/0
  2033 ;;		On exit  : 0/0
  2034 ;;		Unchanged: 0/0
  2035 ;; Data sizes:     COMMON   BANK0   BANK1   BANK3   BANK2
  2036 ;;      Params:         0       0       0       0       0
  2037 ;;      Locals:         0       0       0       0       0
  2038 ;;      Temps:          0       0       0       0       0
  2039 ;;      Totals:         0       0       0       0       0
  2040 ;;Total ram usage:        0 bytes
  2041 ;; Hardware stack levels used: 1
  2042 ;; Hardware stack levels required when called: 3
  2043 ;; This function calls:
  2044 ;;		_lcd_out
  2045 ;; This function is called by:
  2046 ;;		_B
  2047 ;;		_main
  2048 ;; This function uses a non-reentrant model
  2049 ;;
  2050                           
  2051     0B0D                     _reset:	
  2052                           ;psect for function _reset
  2053                           
  2054     0B0D                     l1980:	
  2055                           ;incstack = 0
  2056                           ; Regs used in _reset: [wreg-fsr0h+status,2+status,0+btemp+1+pclath+cstack]
  2057                           
  2058                           
  2059                           ;Lokaverkefni.c: 89:     input = PORTD;
  2060     0B0D  01F4               	clrf	lcd_out@character
  2061     0B0E  0AF4               	incf	lcd_out@character,f
  2062     0B0F  308A               	movlw	low (STR_1| (0+32768))
  2063     0B10  00F5               	movwf	lcd_out@s
  2064     0B11  3091               	movlw	high (STR_1| (0+32768))
  2065     0B12  00F6               	movwf	lcd_out@s+1
  2066     0B13  3001               	movlw	1
  2067     0B14  120A  118A  2014  120A  158A  	fcall	_lcd_out
  2068     0B19                     l1982:
  2069                           
  2070                           ;Lokaverkefni.c: 90:     if(input == 0x18 || input == 0x28 || input == 0x48 || input == 
      +                          0x88){
  2071     0B19  1283               	bcf	3,5	;RP0=0, select bank0
  2072     0B1A  1303               	bcf	3,6	;RP1=0, select bank0
  2073     0B1B  1805               	btfsc	5,0	;volatile
  2074     0B1C  2B1E               	goto	u1401
  2075     0B1D  2B1F               	goto	u1400
  2076     0B1E                     u1401:
  2077     0B1E  2B25               	goto	l168
  2078     0B1F                     u1400:
  2079     0B1F                     l169:	
  2080                           ;Lokaverkefni.c: 91:         switch(input){
  2081                           
  2082                           
  2083                           ;Lokaverkefni.c: 92:             case 0x18: tala = 10; press++; break;
  2084     0B1F  1407               	bsf	7,0	;volatile
  2085                           
  2086                           ;Lokaverkefni.c: 93:             case 0x28: tala = 11; press++; break;
  2087     0B20  1C05               	btfss	5,0	;volatile
  2088     0B21  2B23               	goto	u1411
  2089     0B22  2B24               	goto	u1410
  2090     0B23                     u1411:
  2091     0B23  2B1F               	goto	l169
  2092     0B24                     u1410:
  2093     0B24                     l170:
  2094                           
  2095                           ;Lokaverkefni.c: 94:             case 0x48: tala = 12; press++; break;
  2096     0B24  1007               	bcf	7,0	;volatile
  2097     0B25                     l168:	
  2098                           ;Lokaverkefni.c: 95:             case 0x88: tala = 13; press++; break;
  2099                           
  2100                           
  2101                           ;Lokaverkefni.c: 96:         }
  2102     0B25  1905               	btfsc	5,2	;volatile
  2103     0B26  2B28               	goto	u1421
  2104     0B27  2B29               	goto	u1420
  2105     0B28                     u1421:
  2106     0B28  2B2F               	goto	l171
  2107     0B29                     u1420:
  2108     0B29                     l172:	
  2109                           ;Lokaverkefni.c: 97:     }
  2110                           
  2111                           
  2112                           ;Lokaverkefni.c: 98:     _delay((unsigned long)((5)*(8000000/4000.0)));
  2113     0B29  1587               	bsf	7,3	;volatile
  2114                           
  2115                           ;Lokaverkefni.c: 99:     if((press == 0) && (tala == -1)){
  2116     0B2A  1D05               	btfss	5,2	;volatile
  2117     0B2B  2B2D               	goto	u1431
  2118     0B2C  2B2E               	goto	u1430
  2119     0B2D                     u1431:
  2120     0B2D  2B29               	goto	l172
  2121     0B2E                     u1430:
  2122     0B2E                     l173:
  2123                           
  2124                           ;Lokaverkefni.c: 100:         return tala;
  2125     0B2E  1187               	bcf	7,3	;volatile
  2126     0B2F                     l171:	
  2127                           ;Lokaverkefni.c: 101:     }
  2128                           
  2129                           
  2130                           ;Lokaverkefni.c: 102:     return tala;
  2131     0B2F  1A05               	btfsc	5,4	;volatile
  2132     0B30  2B32               	goto	u1441
  2133     0B31  2B33               	goto	u1440
  2134     0B32                     u1441:
  2135     0B32  2B39               	goto	l1984
  2136     0B33                     u1440:
  2137     0B33                     l175:	
  2138                           ;Lokaverkefni.c: 103: }
  2139                           
  2140                           
  2141                           ;Lokaverkefni.c: 104: 
  2142     0B33  1687               	bsf	7,5	;volatile
  2143                           
  2144                           ;Lokaverkefni.c: 105: void Val(void)
  2145     0B34  1E05               	btfss	5,4	;volatile
  2146     0B35  2B37               	goto	u1451
  2147     0B36  2B38               	goto	u1450
  2148     0B37                     u1451:
  2149     0B37  2B33               	goto	l175
  2150     0B38                     u1450:
  2151     0B38                     l176:
  2152                           
  2153                           ;Lokaverkefni.c: 106: {
  2154     0B38  1287               	bcf	7,5	;volatile
  2155     0B39                     l1984:
  2156                           
  2157                           ;Lokaverkefni.c: 108:     int num = -1;
  2158     0B39  01F4               	clrf	lcd_out@character
  2159     0B3A  0AF4               	incf	lcd_out@character,f
  2160     0B3B  3001               	movlw	low ((STR_33+1)| (0+32768))
  2161     0B3C  00F5               	movwf	lcd_out@s
  2162     0B3D  3090               	movlw	high ((STR_33+1)| (0+32768))
  2163     0B3E  00F6               	movwf	lcd_out@s+1
  2164     0B3F  3001               	movlw	1
  2165     0B40  120A  118A  2014  120A  158A  	fcall	_lcd_out
  2166     0B45                     l177:
  2167     0B45  0008               	return
  2168     0B46                     __end_of_reset:
  2169                           
  2170                           	psect	text5
  2171     035C                     __ptext5:	
  2172 ;; *************** function _A *****************
  2173 ;; Defined at:
  2174 ;;		line 252 in file "Lokaverkefni.c"
  2175 ;; Parameters:    Size  Location     Type
  2176 ;;		None
  2177 ;; Auto vars:     Size  Location     Type
  2178 ;;  num             2    5[BANK0 ] int 
  2179 ;; Return value:  Size  Location     Type
  2180 ;;                  1    wreg      void 
  2181 ;; Registers used:
  2182 ;;		wreg, fsr0l, fsr0h, status,2, status,0, btemp+1, pclath, cstack
  2183 ;; Tracked objects:
  2184 ;;		On entry : 0/0
  2185 ;;		On exit  : 0/0
  2186 ;;		Unchanged: 0/0
  2187 ;; Data sizes:     COMMON   BANK0   BANK1   BANK3   BANK2
  2188 ;;      Params:         0       0       0       0       0
  2189 ;;      Locals:         0       2       0       0       0
  2190 ;;      Temps:          0       3       0       0       0
  2191 ;;      Totals:         0       5       0       0       0
  2192 ;;Total ram usage:        5 bytes
  2193 ;; Hardware stack levels used: 1
  2194 ;; Hardware stack levels required when called: 4
  2195 ;; This function calls:
  2196 ;;		_KeyPad
  2197 ;;		_Val
  2198 ;;		_lcd_chr
  2199 ;;		_lcd_out
  2200 ;; This function is called by:
  2201 ;;		_main
  2202 ;; This function uses a non-reentrant model
  2203 ;;
  2204                           
  2205     035C                     _A:	
  2206                           ;psect for function _A
  2207                           
  2208     035C                     l2148:	
  2209                           ;incstack = 0
  2210                           ; Regs used in _A: [wreg-fsr0h+status,2+status,0+btemp+1+pclath+cstack]
  2211                           
  2212                           
  2213                           ;Lokaverkefni.c: 254:                     scan = 1;
  2214     035C  1283               	bcf	3,5	;RP0=0, select bank0
  2215     035D  1303               	bcf	3,6	;RP1=0, select bank0
  2216     035E  082E               	movf	_run,w
  2217     035F  042F               	iorwf	_run+1,w
  2218     0360  1D03               	btfss	3,2
  2219     0361  2B63               	goto	u1661
  2220     0362  2B64               	goto	u1660
  2221     0363                     u1661:
  2222     0363  2B71               	goto	l2156
  2223     0364                     u1660:
  2224     0364                     l2150:
  2225                           
  2226                           ;Lokaverkefni.c: 256:                     flickerA2++;
  2227     0364  01C4               	clrf	_segull
  2228     0365  01C5               	clrf	_segull+1
  2229                           
  2230                           ;Lokaverkefni.c: 257:                     if (DebounceB == 0 && flicker2 >= flickerspeed
      +                          ) {
  2231     0366  01B8               	clrf	_teljari
  2232     0367  01B9               	clrf	_teljari+1
  2233     0368                     l2152:
  2234                           
  2235                           ;Lokaverkefni.c: 258:                         DebounceB = 1;
  2236     0368  3001               	movlw	1
  2237     0369  00AE               	movwf	_run
  2238     036A  3000               	movlw	0
  2239     036B  00AF               	movwf	_run+1
  2240     036C                     l2154:
  2241                           
  2242                           ;Lokaverkefni.c: 259:                         segull++;
  2243     036C  120A  118A  204E  120A  118A  	fcall	_Val
  2244     0371                     l2156:
  2245                           
  2246                           ;Lokaverkefni.c: 261:                         flickerA2 = 0;
  2247     0371  3004               	movlw	4
  2248     0372  1283               	bcf	3,5	;RP0=0, select bank0
  2249     0373  1303               	bcf	3,6	;RP1=0, select bank0
  2250     0374  00D0               	movwf	??_A+2
  2251     0375  308E               	movlw	142
  2252     0376  00CF               	movwf	??_A+1
  2253     0377  3011               	movlw	17
  2254     0378  00CE               	movwf	??_A
  2255     0379                     u2507:
  2256     0379  0BCE               	decfsz	??_A,f
  2257     037A  2B79               	goto	u2507
  2258     037B  0BCF               	decfsz	??_A+1,f
  2259     037C  2B79               	goto	u2507
  2260     037D  0BD0               	decfsz	??_A+2,f
  2261     037E  2B79               	goto	u2507
  2262     037F  2B80               	nop2
  2263     0380                     l2158:
  2264                           
  2265                           ;Lokaverkefni.c: 262:                     }
  2266     0380  1283               	bcf	3,5	;RP0=0, select bank0
  2267     0381  1303               	bcf	3,6	;RP1=0, select bank0
  2268     0382  1F85               	btfss	5,7	;volatile
  2269     0383  2B85               	goto	u1671
  2270     0384  2B86               	goto	u1670
  2271     0385                     u1671:
  2272     0385  2BBC               	goto	l2166
  2273     0386                     u1670:
  2274     0386                     l2160:
  2275                           
  2276                           ;Lokaverkefni.c: 263:                 }
  2277     0386  01F4               	clrf	lcd_out@character
  2278     0387  0AF4               	incf	lcd_out@character,f
  2279     0388  3001               	movlw	low ((STR_33+1)| (0+32768))
  2280     0389  00F5               	movwf	lcd_out@s
  2281     038A  3090               	movlw	high ((STR_33+1)| (0+32768))
  2282     038B  00F6               	movwf	lcd_out@s+1
  2283     038C  3001               	movlw	1
  2284     038D  120A  118A  2014  120A  118A  	fcall	_lcd_out
  2285                           
  2286                           ;Lokaverkefni.c: 264:                 else if (RB7 == 0 && flickerA2 >= flickerspeed) {
  2287     0392  3002               	movlw	2
  2288     0393  00F4               	movwf	lcd_out@character
  2289     0394  3001               	movlw	low ((STR_33+1)| (0+32768))
  2290     0395  00F5               	movwf	lcd_out@s
  2291     0396  3090               	movlw	high ((STR_33+1)| (0+32768))
  2292     0397  00F6               	movwf	lcd_out@s+1
  2293     0398  3001               	movlw	1
  2294     0399  120A  118A  2014  120A  118A  	fcall	_lcd_out
  2295     039E                     l247:	
  2296                           ;Lokaverkefni.c: 265:                     DebounceB = 0;
  2297                           
  2298                           
  2299                           ;Lokaverkefni.c: 266:                     flicker2 = 0;
  2300     039E  01F4               	clrf	lcd_out@character
  2301     039F  0AF4               	incf	lcd_out@character,f
  2302     03A0  3050               	movlw	low (STR_19| (0+32768))
  2303     03A1  00F5               	movwf	lcd_out@s
  2304     03A2  3091               	movlw	high (STR_19| (0+32768))
  2305     03A3  00F6               	movwf	lcd_out@s+1
  2306     03A4  3001               	movlw	1
  2307     03A5  120A  118A  2014  120A  118A  	fcall	_lcd_out
  2308     03AA                     l2162:
  2309                           
  2310                           ;Lokaverkefni.c: 267:                     flickerA2 = 0;
  2311     03AA  1283               	bcf	3,5	;RP0=0, select bank0
  2312     03AB  1303               	bcf	3,6	;RP1=0, select bank0
  2313     03AC  1B85               	btfsc	5,7	;volatile
  2314     03AD  2BAF               	goto	u1681
  2315     03AE  2BB0               	goto	u1680
  2316     03AF                     u1681:
  2317     03AF  2B9E               	goto	l247
  2318     03B0                     u1680:
  2319     03B0                     l2164:
  2320                           
  2321                           ;Lokaverkefni.c: 268:                 }
  2322     03B0  01F4               	clrf	lcd_out@character
  2323     03B1  0AF4               	incf	lcd_out@character,f
  2324     03B2  3001               	movlw	low ((STR_33+1)| (0+32768))
  2325     03B3  00F5               	movwf	lcd_out@s
  2326     03B4  3090               	movlw	high ((STR_33+1)| (0+32768))
  2327     03B5  00F6               	movwf	lcd_out@s+1
  2328     03B6  3001               	movlw	1
  2329     03B7  120A  118A  2014  120A  118A  	fcall	_lcd_out
  2330     03BC                     l2166:
  2331     03BC                     l2168:
  2332                           
  2333                           ;Lokaverkefni.c: 273:                     interrupt_ms++;
  2334     03BC  120A  158A  260A  120A  118A  	fcall	_KeyPad
  2335     03C1  0871               	movf	?_KeyPad+1,w
  2336     03C2  1283               	bcf	3,5	;RP0=0, select bank0
  2337     03C3  1303               	bcf	3,6	;RP1=0, select bank0
  2338     03C4  00D2               	movwf	A@num+1
  2339     03C5  0870               	movf	?_KeyPad,w
  2340     03C6  00D1               	movwf	A@num
  2341     03C7                     l2170:
  2342                           
  2343                           ;Lokaverkefni.c: 274:                 }
  2344     03C7  01F4               	clrf	lcd_out@character
  2345     03C8  0AF4               	incf	lcd_out@character,f
  2346     03C9  3034               	movlw	low (STR_21| (0+32768))
  2347     03CA  00F5               	movwf	lcd_out@s
  2348     03CB  3091               	movlw	high (STR_21| (0+32768))
  2349     03CC  00F6               	movwf	lcd_out@s+1
  2350     03CD  3001               	movlw	1
  2351     03CE  120A  118A  2014  120A  118A  	fcall	_lcd_out
  2352     03D3                     l2172:
  2353                           
  2354                           ;Lokaverkefni.c: 275:                 if (RB6 == 1) {
  2355     03D3  01F4               	clrf	lcd_out@character
  2356     03D4  0AF4               	incf	lcd_out@character,f
  2357     03D5  3024               	movlw	low (STR_22| (0+32768))
  2358     03D6  00F5               	movwf	lcd_out@s
  2359     03D7  3091               	movlw	high (STR_22| (0+32768))
  2360     03D8  00F6               	movwf	lcd_out@s+1
  2361     03D9  3002               	movlw	2
  2362     03DA  120A  118A  2014  120A  118A  	fcall	_lcd_out
  2363     03DF                     l2174:
  2364                           
  2365                           ;Lokaverkefni.c: 276:                     scan = 1;
  2366     03DF  1283               	bcf	3,5	;RP0=0, select bank0
  2367     03E0  1303               	bcf	3,6	;RP1=0, select bank0
  2368     03E1  0A51               	incf	A@num,w
  2369     03E2  1D03               	skipz
  2370     03E3  2BE9               	goto	u1690
  2371     03E4  0A52               	incf	A@num+1,w
  2372     03E5  1903               	btfsc	3,2
  2373     03E6  2BE8               	goto	u1691
  2374     03E7  2BE9               	goto	u1690
  2375     03E8                     u1691:
  2376     03E8  2BBC               	goto	l2168
  2377     03E9                     u1690:
  2378     03E9                     l2176:
  2379                           
  2380                           ;Lokaverkefni.c: 277:                     flicker1++;
  2381     03E9  0851               	movf	A@num,w
  2382     03EA  0452               	iorwf	A@num+1,w
  2383     03EB  1D03               	btfss	3,2
  2384     03EC  2BEE               	goto	u1701
  2385     03ED  2BEF               	goto	u1700
  2386     03EE                     u1701:
  2387     03EE  2BF2               	goto	l2180
  2388     03EF                     u1700:
  2389     03EF                     l2178:
  2390                           
  2391                           ;Lokaverkefni.c: 278:                     flickerA1++;
  2392     03EF  01AE               	clrf	_run
  2393     03F0  01AF               	clrf	_run+1
  2394                           
  2395                           ;Lokaverkefni.c: 279:                     if (DebounceA == 0 && flicker1 >= flickerspeed
      +                          ) {
  2396     03F1  2FD2               	goto	l2396
  2397     03F2                     l2180:
  2398     03F2  300A               	movlw	10
  2399     03F3  0651               	xorwf	A@num,w
  2400     03F4  0452               	iorwf	A@num+1,w
  2401     03F5  1D03               	btfss	3,2
  2402     03F6  2BF8               	goto	u1711
  2403     03F7  2BF9               	goto	u1710
  2404     03F8                     u1711:
  2405     03F8  2FD2               	goto	l2396
  2406     03F9                     u1710:
  2407     03F9                     l2182:
  2408     03F9                     l2184:
  2409                           
  2410                           ;Lokaverkefni.c: 282:                         flicker1 = 0;
  2411     03F9  1F85               	btfss	5,7	;volatile
  2412     03FA  2BFC               	goto	u1721
  2413     03FB  2BFD               	goto	u1720
  2414     03FC                     u1721:
  2415     03FC  2C42               	goto	l2194
  2416     03FD                     u1720:
  2417     03FD                     l2186:
  2418                           
  2419                           ;Lokaverkefni.c: 283:                         flickerA1 = 0;
  2420     03FD  01F4               	clrf	lcd_out@character
  2421     03FE  0AF4               	incf	lcd_out@character,f
  2422     03FF  3001               	movlw	low ((STR_33+1)| (0+32768))
  2423     0400  00F5               	movwf	lcd_out@s
  2424     0401  3090               	movlw	high ((STR_33+1)| (0+32768))
  2425     0402  00F6               	movwf	lcd_out@s+1
  2426     0403  3001               	movlw	1
  2427     0404  120A  118A  2014  120A  118A  	fcall	_lcd_out
  2428                           
  2429                           ;Lokaverkefni.c: 284:                     }
  2430     0409  3002               	movlw	2
  2431     040A  00F4               	movwf	lcd_out@character
  2432     040B  3001               	movlw	low ((STR_33+1)| (0+32768))
  2433     040C  00F5               	movwf	lcd_out@s
  2434     040D  3090               	movlw	high ((STR_33+1)| (0+32768))
  2435     040E  00F6               	movwf	lcd_out@s+1
  2436     040F  3001               	movlw	1
  2437     0410  120A  118A  2014  120A  118A  	fcall	_lcd_out
  2438     0415                     l256:	
  2439                           ;Lokaverkefni.c: 285:                 }
  2440                           
  2441                           
  2442                           ;Lokaverkefni.c: 286:                 else if (RB6 == 0 && flickerA1 >= flickerspeed) {
  2443     0415  01F4               	clrf	lcd_out@character
  2444     0416  0AF4               	incf	lcd_out@character,f
  2445     0417  3050               	movlw	low (STR_19| (0+32768))
  2446     0418  00F5               	movwf	lcd_out@s
  2447     0419  3091               	movlw	high (STR_19| (0+32768))
  2448     041A  00F6               	movwf	lcd_out@s+1
  2449     041B  3001               	movlw	1
  2450     041C  120A  118A  2014  120A  118A  	fcall	_lcd_out
  2451     0421                     l2188:
  2452                           
  2453                           ;Lokaverkefni.c: 287:                     DebounceA = 0;
  2454     0421  1283               	bcf	3,5	;RP0=0, select bank0
  2455     0422  1303               	bcf	3,6	;RP1=0, select bank0
  2456     0423  1B85               	btfsc	5,7	;volatile
  2457     0424  2C26               	goto	u1731
  2458     0425  2C27               	goto	u1730
  2459     0426                     u1731:
  2460     0426  2C15               	goto	l256
  2461     0427                     u1730:
  2462     0427                     l2190:
  2463                           
  2464                           ;Lokaverkefni.c: 288:                     flicker1 = 0;
  2465     0427  01F4               	clrf	lcd_out@character
  2466     0428  0AF4               	incf	lcd_out@character,f
  2467     0429  3001               	movlw	low ((STR_33+1)| (0+32768))
  2468     042A  00F5               	movwf	lcd_out@s
  2469     042B  3090               	movlw	high ((STR_33+1)| (0+32768))
  2470     042C  00F6               	movwf	lcd_out@s+1
  2471     042D  3001               	movlw	1
  2472     042E  120A  118A  2014  120A  118A  	fcall	_lcd_out
  2473     0433                     l2192:
  2474                           
  2475                           ;Lokaverkefni.c: 289:                     flickerA1 = 0;
  2476     0433  3004               	movlw	4
  2477     0434  1283               	bcf	3,5	;RP0=0, select bank0
  2478     0435  1303               	bcf	3,6	;RP1=0, select bank0
  2479     0436  00D0               	movwf	??_A+2
  2480     0437  308E               	movlw	142
  2481     0438  00CF               	movwf	??_A+1
  2482     0439  3011               	movlw	17
  2483     043A  00CE               	movwf	??_A
  2484     043B                     u2517:
  2485     043B  0BCE               	decfsz	??_A,f
  2486     043C  2C3B               	goto	u2517
  2487     043D  0BCF               	decfsz	??_A+1,f
  2488     043E  2C3B               	goto	u2517
  2489     043F  0BD0               	decfsz	??_A+2,f
  2490     0440  2C3B               	goto	u2517
  2491     0441  2C42               	nop2
  2492     0442                     l2194:
  2493                           
  2494                           ;Lokaverkefni.c: 291:                 if (RB7 == 1) {
  2495     0442  1283               	bcf	3,5	;RP0=0, select bank0
  2496     0443  1303               	bcf	3,6	;RP1=0, select bank0
  2497     0444  1407               	bsf	7,0	;volatile
  2498     0445                     l2196:
  2499                           
  2500                           ;Lokaverkefni.c: 292:                     scan = 1;
  2501     0445  1487               	bsf	7,1	;volatile
  2502     0446                     l2198:
  2503                           
  2504                           ;Lokaverkefni.c: 293:                     flicker2++;
  2505     0446  01F4               	clrf	lcd_out@character
  2506     0447  0AF4               	incf	lcd_out@character,f
  2507     0448  3001               	movlw	low ((STR_33+1)| (0+32768))
  2508     0449  00F5               	movwf	lcd_out@s
  2509     044A  3090               	movlw	high ((STR_33+1)| (0+32768))
  2510     044B  00F6               	movwf	lcd_out@s+1
  2511     044C  3001               	movlw	1
  2512     044D  120A  118A  2014  120A  118A  	fcall	_lcd_out
  2513     0452                     l2200:
  2514                           
  2515                           ;Lokaverkefni.c: 294:                     flickerA2++;
  2516     0452  01F4               	clrf	lcd_out@character
  2517     0453  0AF4               	incf	lcd_out@character,f
  2518     0454  3001               	movlw	low ((STR_33+1)| (0+32768))
  2519     0455  00F5               	movwf	lcd_out@s
  2520     0456  3090               	movlw	high ((STR_33+1)| (0+32768))
  2521     0457  00F6               	movwf	lcd_out@s+1
  2522     0458  3002               	movlw	2
  2523     0459  120A  118A  2014  120A  118A  	fcall	_lcd_out
  2524     045E                     l2202:
  2525                           
  2526                           ;Lokaverkefni.c: 295:                     if (DebounceB == 0 && flicker2 >= flickerspeed
      +                          ) {
  2527     045E  01F4               	clrf	lcd_out@character
  2528     045F  0AF4               	incf	lcd_out@character,f
  2529     0460  305C               	movlw	low (STR_29| (0+32768))
  2530     0461  00F5               	movwf	lcd_out@s
  2531     0462  3091               	movlw	high (STR_29| (0+32768))
  2532     0463  00F6               	movwf	lcd_out@s+1
  2533     0464  3001               	movlw	1
  2534     0465  120A  118A  2014  120A  118A  	fcall	_lcd_out
  2535     046A                     l2204:
  2536                           
  2537                           ;Lokaverkefni.c: 296:                         DebounceB = 1;
  2538     046A  1283               	bcf	3,5	;RP0=0, select bank0
  2539     046B  1303               	bcf	3,6	;RP1=0, select bank0
  2540     046C  01AC               	clrf	_pallur
  2541     046D  01AD               	clrf	_pallur+1
  2542     046E                     l2206:
  2543                           
  2544                           ;Lokaverkefni.c: 297:                         segull++;
  2545     046E  3003               	movlw	3
  2546     046F  1283               	bcf	3,5	;RP0=0, select bank0
  2547     0470  1303               	bcf	3,6	;RP1=0, select bank0
  2548     0471  00D0               	movwf	??_A+2
  2549     0472  3008               	movlw	8
  2550     0473  00CF               	movwf	??_A+1
  2551     0474  3076               	movlw	118
  2552     0475  00CE               	movwf	??_A
  2553     0476                     u2527:
  2554     0476  0BCE               	decfsz	??_A,f
  2555     0477  2C76               	goto	u2527
  2556     0478  0BCF               	decfsz	??_A+1,f
  2557     0479  2C76               	goto	u2527
  2558     047A  0BD0               	decfsz	??_A+2,f
  2559     047B  2C76               	goto	u2527
  2560     047C  0000               	nop
  2561     047D                     l2208:
  2562                           
  2563                           ;Lokaverkefni.c: 298:                         flicker2 = 0;
  2564     047D  01F4               	clrf	lcd_out@character
  2565     047E  0AF4               	incf	lcd_out@character,f
  2566     047F  30A2               	movlw	low (STR_30| (0+32768))
  2567     0480  00F5               	movwf	lcd_out@s
  2568     0481  3091               	movlw	high (STR_30| (0+32768))
  2569     0482  00F6               	movwf	lcd_out@s+1
  2570     0483  3002               	movlw	2
  2571     0484  120A  118A  2014  120A  118A  	fcall	_lcd_out
  2572     0489                     l2210:
  2573                           
  2574                           ;Lokaverkefni.c: 300:                     }
  2575     0489  1283               	bcf	3,5	;RP0=0, select bank0
  2576     048A  1303               	bcf	3,6	;RP1=0, select bank0
  2577     048B  0342               	decf	_scan,w
  2578     048C  0443               	iorwf	_scan+1,w
  2579     048D  1D03               	btfss	3,2
  2580     048E  2C90               	goto	u1741
  2581     048F  2C91               	goto	u1740
  2582     0490                     u1741:
  2583     0490  2C97               	goto	l2214
  2584     0491                     u1740:
  2585     0491                     l2212:
  2586                           
  2587                           ;Lokaverkefni.c: 301:                 }
  2588     0491  3001               	movlw	1
  2589     0492  07C6               	addwf	_interrupt_ms,f
  2590     0493  1803               	skipnc
  2591     0494  0AC7               	incf	_interrupt_ms+1,f
  2592     0495  3000               	movlw	0
  2593     0496  07C7               	addwf	_interrupt_ms+1,f
  2594     0497                     l2214:
  2595                           
  2596                           ;Lokaverkefni.c: 303:                     DebounceB = 0;
  2597     0497  1F06               	btfss	6,6	;volatile
  2598     0498  2C9A               	goto	u1751
  2599     0499  2C9B               	goto	u1750
  2600     049A                     u1751:
  2601     049A  2CCF               	goto	l260
  2602     049B                     u1750:
  2603     049B                     l2216:
  2604                           
  2605                           ;Lokaverkefni.c: 304:                     flicker2 = 0;
  2606     049B  3001               	movlw	1
  2607     049C  00C2               	movwf	_scan
  2608     049D  3000               	movlw	0
  2609     049E  00C3               	movwf	_scan+1
  2610                           
  2611                           ;Lokaverkefni.c: 305:                     flickerA2 = 0;
  2612     049F  3001               	movlw	1
  2613     04A0  07C0               	addwf	_flicker1,f
  2614     04A1  1803               	skipnc
  2615     04A2  0AC1               	incf	_flicker1+1,f
  2616     04A3  3000               	movlw	0
  2617     04A4  07C1               	addwf	_flicker1+1,f
  2618                           
  2619                           ;Lokaverkefni.c: 306:                 }
  2620     04A5  3001               	movlw	1
  2621     04A6  07BE               	addwf	_flickerA1,f
  2622     04A7  1803               	skipnc
  2623     04A8  0ABF               	incf	_flickerA1+1,f
  2624     04A9  3000               	movlw	0
  2625     04AA  07BF               	addwf	_flickerA1+1,f
  2626     04AB                     l2218:
  2627                           
  2628                           ;Lokaverkefni.c: 307:                 if (interrupt_ms >= flickermax || segull >= 4) {
  2629     04AB  084A               	movf	_DebounceA,w
  2630     04AC  044B               	iorwf	_DebounceA+1,w
  2631     04AD  1D03               	btfss	3,2
  2632     04AE  2CB0               	goto	u1761
  2633     04AF  2CB1               	goto	u1760
  2634     04B0                     u1761:
  2635     04B0  2CE8               	goto	l2232
  2636     04B1                     u1760:
  2637     04B1                     l2220:
  2638     04B1  0841               	movf	_flicker1+1,w
  2639     04B2  3A80               	xorlw	128
  2640     04B3  00FF               	movwf	btemp+1
  2641     04B4  3080               	movlw	128
  2642     04B5  027F               	subwf	btemp+1,w
  2643     04B6  1D03               	skipz
  2644     04B7  2CBA               	goto	u1775
  2645     04B8  3064               	movlw	100
  2646     04B9  0240               	subwf	_flicker1,w
  2647     04BA                     u1775:
  2648     04BA  1C03               	skipc
  2649     04BB  2CBD               	goto	u1771
  2650     04BC  2CBE               	goto	u1770
  2651     04BD                     u1771:
  2652     04BD  2CE8               	goto	l2232
  2653     04BE                     u1770:
  2654     04BE                     l2222:
  2655                           
  2656                           ;Lokaverkefni.c: 308:                     teljari = 1;
  2657     04BE  3001               	movlw	1
  2658     04BF  1283               	bcf	3,5	;RP0=0, select bank0
  2659     04C0  1303               	bcf	3,6	;RP1=0, select bank0
  2660     04C1  00CA               	movwf	_DebounceA
  2661     04C2  3000               	movlw	0
  2662     04C3  00CB               	movwf	_DebounceA+1
  2663                           
  2664                           ;Lokaverkefni.c: 309:                 }
  2665     04C4  3001               	movlw	1
  2666     04C5  07C4               	addwf	_segull,f
  2667     04C6  1803               	skipnc
  2668     04C7  0AC5               	incf	_segull+1,f
  2669     04C8  3000               	movlw	0
  2670     04C9  07C5               	addwf	_segull+1,f
  2671     04CA                     l2224:
  2672                           
  2673                           ;Lokaverkefni.c: 310:             }while(teljari == 0);
  2674     04CA  01C0               	clrf	_flicker1
  2675     04CB  01C1               	clrf	_flicker1+1
  2676     04CC                     l2226:
  2677                           
  2678                           ;Lokaverkefni.c: 311:             lcd_chr(2,7, segull+48);
  2679     04CC  01BE               	clrf	_flickerA1
  2680     04CD  01BF               	clrf	_flickerA1+1
  2681     04CE  2CE8               	goto	l2232
  2682     04CF                     l260:	
  2683                           ;Lokaverkefni.c: 314:             if(segull == 1){
  2684                           
  2685     04CF  1B06               	btfsc	6,6	;volatile
  2686     04D0  2CD2               	goto	u1781
  2687     04D1  2CD3               	goto	u1780
  2688     04D2                     u1781:
  2689     04D2  2CE8               	goto	l2232
  2690     04D3                     u1780:
  2691     04D3                     l2228:
  2692     04D3  083F               	movf	_flickerA1+1,w
  2693     04D4  3A80               	xorlw	128
  2694     04D5  00FF               	movwf	btemp+1
  2695     04D6  3080               	movlw	128
  2696     04D7  027F               	subwf	btemp+1,w
  2697     04D8  1D03               	skipz
  2698     04D9  2CDC               	goto	u1795
  2699     04DA  3064               	movlw	100
  2700     04DB  023E               	subwf	_flickerA1,w
  2701     04DC                     u1795:
  2702     04DC  1C03               	skipc
  2703     04DD  2CDF               	goto	u1791
  2704     04DE  2CE0               	goto	u1790
  2705     04DF                     u1791:
  2706     04DF  2CE8               	goto	l2232
  2707     04E0                     u1790:
  2708     04E0                     l2230:
  2709                           
  2710                           ;Lokaverkefni.c: 315:                 pallur = kubbur1;
  2711     04E0  1283               	bcf	3,5	;RP0=0, select bank0
  2712     04E1  1303               	bcf	3,6	;RP1=0, select bank0
  2713     04E2  01CA               	clrf	_DebounceA
  2714     04E3  01CB               	clrf	_DebounceA+1
  2715                           
  2716                           ;Lokaverkefni.c: 316:             }
  2717     04E4  01C0               	clrf	_flicker1
  2718     04E5  01C1               	clrf	_flicker1+1
  2719                           
  2720                           ;Lokaverkefni.c: 317:             else if(segull == 2){
  2721     04E6  01BE               	clrf	_flickerA1
  2722     04E7  01BF               	clrf	_flickerA1+1
  2723     04E8                     l2232:
  2724                           
  2725                           ;Lokaverkefni.c: 319:             }
  2726     04E8  1283               	bcf	3,5	;RP0=0, select bank0
  2727     04E9  1303               	bcf	3,6	;RP1=0, select bank0
  2728     04EA  1F86               	btfss	6,7	;volatile
  2729     04EB  2CED               	goto	u1801
  2730     04EC  2CEE               	goto	u1800
  2731     04ED                     u1801:
  2732     04ED  2D22               	goto	l264
  2733     04EE                     u1800:
  2734     04EE                     l2234:
  2735                           
  2736                           ;Lokaverkefni.c: 320:             else if(segull == 3){
  2737     04EE  3001               	movlw	1
  2738     04EF  00C2               	movwf	_scan
  2739     04F0  3000               	movlw	0
  2740     04F1  00C3               	movwf	_scan+1
  2741                           
  2742                           ;Lokaverkefni.c: 321:                 pallur = kubbur3;
  2743     04F2  3001               	movlw	1
  2744     04F3  07BC               	addwf	_flicker2,f
  2745     04F4  1803               	skipnc
  2746     04F5  0ABD               	incf	_flicker2+1,f
  2747     04F6  3000               	movlw	0
  2748     04F7  07BD               	addwf	_flicker2+1,f
  2749                           
  2750                           ;Lokaverkefni.c: 322:             }
  2751     04F8  3001               	movlw	1
  2752     04F9  07BA               	addwf	_flickerA2,f
  2753     04FA  1803               	skipnc
  2754     04FB  0ABB               	incf	_flickerA2+1,f
  2755     04FC  3000               	movlw	0
  2756     04FD  07BB               	addwf	_flickerA2+1,f
  2757     04FE                     l2236:
  2758                           
  2759                           ;Lokaverkefni.c: 323:             else if(segull == 4){
  2760     04FE  0848               	movf	_DebounceB,w
  2761     04FF  0449               	iorwf	_DebounceB+1,w
  2762     0500  1D03               	btfss	3,2
  2763     0501  2D03               	goto	u1811
  2764     0502  2D04               	goto	u1810
  2765     0503                     u1811:
  2766     0503  2D3B               	goto	l2250
  2767     0504                     u1810:
  2768     0504                     l2238:
  2769     0504  083D               	movf	_flicker2+1,w
  2770     0505  3A80               	xorlw	128
  2771     0506  00FF               	movwf	btemp+1
  2772     0507  3080               	movlw	128
  2773     0508  027F               	subwf	btemp+1,w
  2774     0509  1D03               	skipz
  2775     050A  2D0D               	goto	u1825
  2776     050B  3064               	movlw	100
  2777     050C  023C               	subwf	_flicker2,w
  2778     050D                     u1825:
  2779     050D  1C03               	skipc
  2780     050E  2D10               	goto	u1821
  2781     050F  2D11               	goto	u1820
  2782     0510                     u1821:
  2783     0510  2D3B               	goto	l2250
  2784     0511                     u1820:
  2785     0511                     l2240:
  2786                           
  2787                           ;Lokaverkefni.c: 324:                 pallur = kubbur4;
  2788     0511  3001               	movlw	1
  2789     0512  1283               	bcf	3,5	;RP0=0, select bank0
  2790     0513  1303               	bcf	3,6	;RP1=0, select bank0
  2791     0514  00C8               	movwf	_DebounceB
  2792     0515  3000               	movlw	0
  2793     0516  00C9               	movwf	_DebounceB+1
  2794                           
  2795                           ;Lokaverkefni.c: 325:             }
  2796     0517  3001               	movlw	1
  2797     0518  07C4               	addwf	_segull,f
  2798     0519  1803               	skipnc
  2799     051A  0AC5               	incf	_segull+1,f
  2800     051B  3000               	movlw	0
  2801     051C  07C5               	addwf	_segull+1,f
  2802     051D                     l2242:
  2803                           
  2804                           ;Lokaverkefni.c: 326:             lcd_chr(1,8, pallur+48);
  2805     051D  01BC               	clrf	_flicker2
  2806     051E  01BD               	clrf	_flicker2+1
  2807     051F                     l2244:
  2808                           
  2809                           ;Lokaverkefni.c: 327: 
  2810     051F  01BA               	clrf	_flickerA2
  2811     0520  01BB               	clrf	_flickerA2+1
  2812     0521  2D3B               	goto	l2250
  2813     0522                     l264:	
  2814                           ;Lokaverkefni.c: 330:                     RC1 = 1;
  2815                           
  2816     0522  1B86               	btfsc	6,7	;volatile
  2817     0523  2D25               	goto	u1831
  2818     0524  2D26               	goto	u1830
  2819     0525                     u1831:
  2820     0525  2D3B               	goto	l2250
  2821     0526                     u1830:
  2822     0526                     l2246:
  2823     0526  083B               	movf	_flickerA2+1,w
  2824     0527  3A80               	xorlw	128
  2825     0528  00FF               	movwf	btemp+1
  2826     0529  3080               	movlw	128
  2827     052A  027F               	subwf	btemp+1,w
  2828     052B  1D03               	skipz
  2829     052C  2D2F               	goto	u1845
  2830     052D  3064               	movlw	100
  2831     052E  023A               	subwf	_flickerA2,w
  2832     052F                     u1845:
  2833     052F  1C03               	skipc
  2834     0530  2D32               	goto	u1841
  2835     0531  2D33               	goto	u1840
  2836     0532                     u1841:
  2837     0532  2D3B               	goto	l2250
  2838     0533                     u1840:
  2839     0533                     l2248:
  2840                           
  2841                           ;Lokaverkefni.c: 331:                 }while(RA5 == 0);
  2842     0533  1283               	bcf	3,5	;RP0=0, select bank0
  2843     0534  1303               	bcf	3,6	;RP1=0, select bank0
  2844     0535  01C8               	clrf	_DebounceB
  2845     0536  01C9               	clrf	_DebounceB+1
  2846                           
  2847                           ;Lokaverkefni.c: 332:                 if(RA5 == 1){
  2848     0537  01BC               	clrf	_flicker2
  2849     0538  01BD               	clrf	_flicker2+1
  2850                           
  2851                           ;Lokaverkefni.c: 333:                     RC1 = 0;
  2852     0539  01BA               	clrf	_flickerA2
  2853     053A  01BB               	clrf	_flickerA2+1
  2854     053B                     l2250:
  2855                           
  2856                           ;Lokaverkefni.c: 335:                 }
  2857     053B  1283               	bcf	3,5	;RP0=0, select bank0
  2858     053C  1303               	bcf	3,6	;RP1=0, select bank0
  2859     053D  1C05               	btfss	5,0	;volatile
  2860     053E  2D40               	goto	u1851
  2861     053F  2D41               	goto	u1850
  2862     0540                     u1851:
  2863     0540  2C89               	goto	l2210
  2864     0541                     u1850:
  2865     0541                     l268:
  2866                           
  2867                           ;Lokaverkefni.c: 336:                 if(RA5 == 1){
  2868     0541  1007               	bcf	7,0	;volatile
  2869     0542                     l2252:
  2870                           
  2871                           ;Lokaverkefni.c: 338:                         RC2 = 1;
  2872     0542  0342               	decf	_scan,w
  2873     0543  0443               	iorwf	_scan+1,w
  2874     0544  1D03               	btfss	3,2
  2875     0545  2D47               	goto	u1861
  2876     0546  2D48               	goto	u1860
  2877     0547                     u1861:
  2878     0547  2D4E               	goto	l2256
  2879     0548                     u1860:
  2880     0548                     l2254:
  2881                           
  2882                           ;Lokaverkefni.c: 339:                     }while(RA1 == 0);
  2883     0548  3001               	movlw	1
  2884     0549  07C6               	addwf	_interrupt_ms,f
  2885     054A  1803               	skipnc
  2886     054B  0AC7               	incf	_interrupt_ms+1,f
  2887     054C  3000               	movlw	0
  2888     054D  07C7               	addwf	_interrupt_ms+1,f
  2889     054E                     l2256:
  2890                           
  2891                           ;Lokaverkefni.c: 341:                     _delay((unsigned long)((150)*(8000000/4000.0))
      +                          );
  2892     054E  1F06               	btfss	6,6	;volatile
  2893     054F  2D51               	goto	u1871
  2894     0550  2D52               	goto	u1870
  2895     0551                     u1871:
  2896     0551  2D86               	goto	l271
  2897     0552                     u1870:
  2898     0552                     l2258:
  2899                           
  2900                           ;Lokaverkefni.c: 342:                 }
  2901     0552  3001               	movlw	1
  2902     0553  00C2               	movwf	_scan
  2903     0554  3000               	movlw	0
  2904     0555  00C3               	movwf	_scan+1
  2905                           
  2906                           ;Lokaverkefni.c: 343:                 if(RA1 == 1){
  2907     0556  3001               	movlw	1
  2908     0557  07C0               	addwf	_flicker1,f
  2909     0558  1803               	skipnc
  2910     0559  0AC1               	incf	_flicker1+1,f
  2911     055A  3000               	movlw	0
  2912     055B  07C1               	addwf	_flicker1+1,f
  2913                           
  2914                           ;Lokaverkefni.c: 344:                     do{
  2915     055C  3001               	movlw	1
  2916     055D  07BE               	addwf	_flickerA1,f
  2917     055E  1803               	skipnc
  2918     055F  0ABF               	incf	_flickerA1+1,f
  2919     0560  3000               	movlw	0
  2920     0561  07BF               	addwf	_flickerA1+1,f
  2921     0562                     l2260:
  2922                           
  2923                           ;Lokaverkefni.c: 345:                         RC3 = 1;
  2924     0562  084A               	movf	_DebounceA,w
  2925     0563  044B               	iorwf	_DebounceA+1,w
  2926     0564  1D03               	btfss	3,2
  2927     0565  2D67               	goto	u1881
  2928     0566  2D68               	goto	u1880
  2929     0567                     u1881:
  2930     0567  2D9F               	goto	l2274
  2931     0568                     u1880:
  2932     0568                     l2262:
  2933     0568  0841               	movf	_flicker1+1,w
  2934     0569  3A80               	xorlw	128
  2935     056A  00FF               	movwf	btemp+1
  2936     056B  3080               	movlw	128
  2937     056C  027F               	subwf	btemp+1,w
  2938     056D  1D03               	skipz
  2939     056E  2D71               	goto	u1895
  2940     056F  3064               	movlw	100
  2941     0570  0240               	subwf	_flicker1,w
  2942     0571                     u1895:
  2943     0571  1C03               	skipc
  2944     0572  2D74               	goto	u1891
  2945     0573  2D75               	goto	u1890
  2946     0574                     u1891:
  2947     0574  2D9F               	goto	l2274
  2948     0575                     u1890:
  2949     0575                     l2264:
  2950                           
  2951                           ;Lokaverkefni.c: 346:                     }while(RA2 == 0);
  2952     0575  3001               	movlw	1
  2953     0576  1283               	bcf	3,5	;RP0=0, select bank0
  2954     0577  1303               	bcf	3,6	;RP1=0, select bank0
  2955     0578  00CA               	movwf	_DebounceA
  2956     0579  3000               	movlw	0
  2957     057A  00CB               	movwf	_DebounceA+1
  2958                           
  2959                           ;Lokaverkefni.c: 347:                     RC3 = 0;
  2960     057B  3001               	movlw	1
  2961     057C  07C4               	addwf	_segull,f
  2962     057D  1803               	skipnc
  2963     057E  0AC5               	incf	_segull+1,f
  2964     057F  3000               	movlw	0
  2965     0580  07C5               	addwf	_segull+1,f
  2966     0581                     l2266:
  2967                           
  2968                           ;Lokaverkefni.c: 348:                     _delay((unsigned long)((150)*(8000000/4000.0))
      +                          );
  2969     0581  01C0               	clrf	_flicker1
  2970     0582  01C1               	clrf	_flicker1+1
  2971     0583                     l2268:
  2972                           
  2973                           ;Lokaverkefni.c: 349:                     teljari = 0;
  2974     0583  01BE               	clrf	_flickerA1
  2975     0584  01BF               	clrf	_flickerA1+1
  2976     0585  2D9F               	goto	l2274
  2977     0586                     l271:	
  2978                           ;Lokaverkefni.c: 352:                     pallur = 0;
  2979                           
  2980     0586  1B06               	btfsc	6,6	;volatile
  2981     0587  2D89               	goto	u1901
  2982     0588  2D8A               	goto	u1900
  2983     0589                     u1901:
  2984     0589  2D9F               	goto	l2274
  2985     058A                     u1900:
  2986     058A                     l2270:
  2987     058A  083F               	movf	_flickerA1+1,w
  2988     058B  3A80               	xorlw	128
  2989     058C  00FF               	movwf	btemp+1
  2990     058D  3080               	movlw	128
  2991     058E  027F               	subwf	btemp+1,w
  2992     058F  1D03               	skipz
  2993     0590  2D93               	goto	u1915
  2994     0591  3064               	movlw	100
  2995     0592  023E               	subwf	_flickerA1,w
  2996     0593                     u1915:
  2997     0593  1C03               	skipc
  2998     0594  2D96               	goto	u1911
  2999     0595  2D97               	goto	u1910
  3000     0596                     u1911:
  3001     0596  2D9F               	goto	l2274
  3002     0597                     u1910:
  3003     0597                     l2272:
  3004                           
  3005                           ;Lokaverkefni.c: 353:                     lcd_out(1,1, "                 ");
  3006     0597  1283               	bcf	3,5	;RP0=0, select bank0
  3007     0598  1303               	bcf	3,6	;RP1=0, select bank0
  3008     0599  01CA               	clrf	_DebounceA
  3009     059A  01CB               	clrf	_DebounceA+1
  3010                           
  3011                           ;Lokaverkefni.c: 354:                 }
  3012     059B  01C0               	clrf	_flicker1
  3013     059C  01C1               	clrf	_flicker1+1
  3014                           
  3015                           ;Lokaverkefni.c: 355:             }
  3016     059D  01BE               	clrf	_flickerA1
  3017     059E  01BF               	clrf	_flickerA1+1
  3018     059F                     l2274:
  3019                           
  3020                           ;Lokaverkefni.c: 357:             else if(pallur == 2){
  3021     059F  1283               	bcf	3,5	;RP0=0, select bank0
  3022     05A0  1303               	bcf	3,6	;RP1=0, select bank0
  3023     05A1  1F86               	btfss	6,7	;volatile
  3024     05A2  2DA4               	goto	u1921
  3025     05A3  2DA5               	goto	u1920
  3026     05A4                     u1921:
  3027     05A4  2DD9               	goto	l275
  3028     05A5                     u1920:
  3029     05A5                     l2276:
  3030                           
  3031                           ;Lokaverkefni.c: 358:                 do{
  3032     05A5  3001               	movlw	1
  3033     05A6  00C2               	movwf	_scan
  3034     05A7  3000               	movlw	0
  3035     05A8  00C3               	movwf	_scan+1
  3036                           
  3037                           ;Lokaverkefni.c: 359:                     RC1 = 1;
  3038     05A9  3001               	movlw	1
  3039     05AA  07BC               	addwf	_flicker2,f
  3040     05AB  1803               	skipnc
  3041     05AC  0ABD               	incf	_flicker2+1,f
  3042     05AD  3000               	movlw	0
  3043     05AE  07BD               	addwf	_flicker2+1,f
  3044                           
  3045                           ;Lokaverkefni.c: 360:                 }while(RA6 == 0);
  3046     05AF  3001               	movlw	1
  3047     05B0  07BA               	addwf	_flickerA2,f
  3048     05B1  1803               	skipnc
  3049     05B2  0ABB               	incf	_flickerA2+1,f
  3050     05B3  3000               	movlw	0
  3051     05B4  07BB               	addwf	_flickerA2+1,f
  3052     05B5                     l2278:
  3053                           
  3054                           ;Lokaverkefni.c: 361: 
  3055     05B5  0848               	movf	_DebounceB,w
  3056     05B6  0449               	iorwf	_DebounceB+1,w
  3057     05B7  1D03               	btfss	3,2
  3058     05B8  2DBA               	goto	u1931
  3059     05B9  2DBB               	goto	u1930
  3060     05BA                     u1931:
  3061     05BA  2DF2               	goto	l2292
  3062     05BB                     u1930:
  3063     05BB                     l2280:
  3064     05BB  083D               	movf	_flicker2+1,w
  3065     05BC  3A80               	xorlw	128
  3066     05BD  00FF               	movwf	btemp+1
  3067     05BE  3080               	movlw	128
  3068     05BF  027F               	subwf	btemp+1,w
  3069     05C0  1D03               	skipz
  3070     05C1  2DC4               	goto	u1945
  3071     05C2  3064               	movlw	100
  3072     05C3  023C               	subwf	_flicker2,w
  3073     05C4                     u1945:
  3074     05C4  1C03               	skipc
  3075     05C5  2DC7               	goto	u1941
  3076     05C6  2DC8               	goto	u1940
  3077     05C7                     u1941:
  3078     05C7  2DF2               	goto	l2292
  3079     05C8                     u1940:
  3080     05C8                     l2282:
  3081                           
  3082                           ;Lokaverkefni.c: 362:                 if(RA6 == 1){
  3083     05C8  3001               	movlw	1
  3084     05C9  1283               	bcf	3,5	;RP0=0, select bank0
  3085     05CA  1303               	bcf	3,6	;RP1=0, select bank0
  3086     05CB  00C8               	movwf	_DebounceB
  3087     05CC  3000               	movlw	0
  3088     05CD  00C9               	movwf	_DebounceB+1
  3089                           
  3090                           ;Lokaverkefni.c: 363:                     RC1 = 0;
  3091     05CE  3001               	movlw	1
  3092     05CF  07C4               	addwf	_segull,f
  3093     05D0  1803               	skipnc
  3094     05D1  0AC5               	incf	_segull+1,f
  3095     05D2  3000               	movlw	0
  3096     05D3  07C5               	addwf	_segull+1,f
  3097     05D4                     l2284:
  3098                           
  3099                           ;Lokaverkefni.c: 364:                     _delay((unsigned long)((100)*(8000000/4000.0))
      +                          );
  3100     05D4  01BC               	clrf	_flicker2
  3101     05D5  01BD               	clrf	_flicker2+1
  3102     05D6                     l2286:
  3103                           
  3104                           ;Lokaverkefni.c: 365:                 }
  3105     05D6  01BA               	clrf	_flickerA2
  3106     05D7  01BB               	clrf	_flickerA2+1
  3107     05D8  2DF2               	goto	l2292
  3108     05D9                     l275:	
  3109                           ;Lokaverkefni.c: 368:                         RC4 = 1;
  3110                           
  3111     05D9  1B86               	btfsc	6,7	;volatile
  3112     05DA  2DDC               	goto	u1951
  3113     05DB  2DDD               	goto	u1950
  3114     05DC                     u1951:
  3115     05DC  2DF2               	goto	l2292
  3116     05DD                     u1950:
  3117     05DD                     l2288:
  3118     05DD  083B               	movf	_flickerA2+1,w
  3119     05DE  3A80               	xorlw	128
  3120     05DF  00FF               	movwf	btemp+1
  3121     05E0  3080               	movlw	128
  3122     05E1  027F               	subwf	btemp+1,w
  3123     05E2  1D03               	skipz
  3124     05E3  2DE6               	goto	u1965
  3125     05E4  3064               	movlw	100
  3126     05E5  023A               	subwf	_flickerA2,w
  3127     05E6                     u1965:
  3128     05E6  1C03               	skipc
  3129     05E7  2DE9               	goto	u1961
  3130     05E8  2DEA               	goto	u1960
  3131     05E9                     u1961:
  3132     05E9  2DF2               	goto	l2292
  3133     05EA                     u1960:
  3134     05EA                     l2290:
  3135                           
  3136                           ;Lokaverkefni.c: 369:                     }while(RA3 == 0);
  3137     05EA  1283               	bcf	3,5	;RP0=0, select bank0
  3138     05EB  1303               	bcf	3,6	;RP1=0, select bank0
  3139     05EC  01C8               	clrf	_DebounceB
  3140     05ED  01C9               	clrf	_DebounceB+1
  3141                           
  3142                           ;Lokaverkefni.c: 370:                     RC4 = 0;
  3143     05EE  01BC               	clrf	_flicker2
  3144     05EF  01BD               	clrf	_flicker2+1
  3145                           
  3146                           ;Lokaverkefni.c: 371:                     _delay((unsigned long)((150)*(8000000/4000.0))
      +                          );
  3147     05F0  01BA               	clrf	_flickerA2
  3148     05F1  01BB               	clrf	_flickerA2+1
  3149     05F2                     l2292:
  3150                           
  3151                           ;Lokaverkefni.c: 373:                 if(RA3 == 1){
  3152     05F2  1283               	bcf	3,5	;RP0=0, select bank0
  3153     05F3  1303               	bcf	3,6	;RP1=0, select bank0
  3154     05F4  0847               	movf	_interrupt_ms+1,w
  3155     05F5  3A80               	xorlw	128
  3156     05F6  00FF               	movwf	btemp+1
  3157     05F7  3080               	movlw	128
  3158     05F8  027F               	subwf	btemp+1,w
  3159     05F9  1D03               	skipz
  3160     05FA  2DFD               	goto	u1975
  3161     05FB  3046               	movlw	70
  3162     05FC  0246               	subwf	_interrupt_ms,w
  3163     05FD                     u1975:
  3164     05FD  1803               	skipnc
  3165     05FE  2E00               	goto	u1971
  3166     05FF  2E01               	goto	u1970
  3167     0600                     u1971:
  3168     0600  2E10               	goto	l2296
  3169     0601                     u1970:
  3170     0601                     l2294:
  3171     0601  1283               	bcf	3,5	;RP0=0, select bank0
  3172     0602  1303               	bcf	3,6	;RP1=0, select bank0
  3173     0603  0845               	movf	_segull+1,w
  3174     0604  3A80               	xorlw	128
  3175     0605  00FF               	movwf	btemp+1
  3176     0606  3080               	movlw	128
  3177     0607  027F               	subwf	btemp+1,w
  3178     0608  1D03               	skipz
  3179     0609  2E0C               	goto	u1985
  3180     060A  3004               	movlw	4
  3181     060B  0244               	subwf	_segull,w
  3182     060C                     u1985:
  3183     060C  1C03               	skipc
  3184     060D  2E0F               	goto	u1981
  3185     060E  2E10               	goto	u1980
  3186     060F                     u1981:
  3187     060F  2E16               	goto	l2298
  3188     0610                     u1980:
  3189     0610                     l2296:
  3190                           
  3191                           ;Lokaverkefni.c: 374:                     do{
  3192     0610  3001               	movlw	1
  3193     0611  1283               	bcf	3,5	;RP0=0, select bank0
  3194     0612  1303               	bcf	3,6	;RP1=0, select bank0
  3195     0613  00B8               	movwf	_teljari
  3196     0614  3000               	movlw	0
  3197     0615  00B9               	movwf	_teljari+1
  3198     0616                     l2298:
  3199                           
  3200                           ;Lokaverkefni.c: 376:                     }while(RA4 == 0);
  3201     0616  1283               	bcf	3,5	;RP0=0, select bank0
  3202     0617  1303               	bcf	3,6	;RP1=0, select bank0
  3203     0618  0838               	movf	_teljari,w
  3204     0619  0439               	iorwf	_teljari+1,w
  3205     061A  1903               	btfsc	3,2
  3206     061B  2E1D               	goto	u1991
  3207     061C  2E1E               	goto	u1990
  3208     061D                     u1991:
  3209     061D  2D42               	goto	l2252
  3210     061E                     u1990:
  3211     061E                     l2300:
  3212                           
  3213                           ;Lokaverkefni.c: 377:                     RC5 = 0;
  3214     061E  3007               	movlw	7
  3215     061F  00F4               	movwf	lcd_chr@character
  3216     0620  0844               	movf	_segull,w
  3217     0621  3E30               	addlw	48
  3218     0622  00F5               	movwf	lcd_chr@c
  3219     0623  3002               	movlw	2
  3220     0624  120A  158A  22C5  120A  118A  	fcall	_lcd_chr
  3221     0629                     l2302:
  3222                           
  3223                           ;Lokaverkefni.c: 378:                     _delay((unsigned long)((150)*(8000000/4000.0))
      +                          );
  3224     0629  01F4               	clrf	lcd_out@character
  3225     062A  0AF4               	incf	lcd_out@character,f
  3226     062B  3001               	movlw	low ((STR_33+1)| (0+32768))
  3227     062C  00F5               	movwf	lcd_out@s
  3228     062D  3090               	movlw	high ((STR_33+1)| (0+32768))
  3229     062E  00F6               	movwf	lcd_out@s+1
  3230     062F  3001               	movlw	1
  3231     0630  120A  118A  2014  120A  118A  	fcall	_lcd_out
  3232     0635                     l2304:
  3233                           
  3234                           ;Lokaverkefni.c: 379:                     teljari = 0;
  3235     0635  01F4               	clrf	lcd_out@character
  3236     0636  0AF4               	incf	lcd_out@character,f
  3237     0637  3093               	movlw	low (STR_32| (0+32768))
  3238     0638  00F5               	movwf	lcd_out@s
  3239     0639  3091               	movlw	high (STR_32| (0+32768))
  3240     063A  00F6               	movwf	lcd_out@s+1
  3241     063B  3001               	movlw	1
  3242     063C  120A  118A  2014  120A  118A  	fcall	_lcd_out
  3243     0641                     l2306:
  3244                           
  3245                           ;Lokaverkefni.c: 380:                     segull = 0;
  3246     0641  1283               	bcf	3,5	;RP0=0, select bank0
  3247     0642  1303               	bcf	3,6	;RP1=0, select bank0
  3248     0643  0344               	decf	_segull,w
  3249     0644  0445               	iorwf	_segull+1,w
  3250     0645  1D03               	btfss	3,2
  3251     0646  2E48               	goto	u2001
  3252     0647  2E49               	goto	u2000
  3253     0648                     u2001:
  3254     0648  2E4E               	goto	l2310
  3255     0649                     u2000:
  3256     0649                     l2308:
  3257                           
  3258                           ;Lokaverkefni.c: 381:                     scan = 0;
  3259     0649  0837               	movf	_kubbur1+1,w
  3260     064A  00AD               	movwf	_pallur+1
  3261     064B  0836               	movf	_kubbur1,w
  3262     064C  00AC               	movwf	_pallur
  3263                           
  3264                           ;Lokaverkefni.c: 382:                     pallur = 0;
  3265     064D  2E72               	goto	l2322
  3266     064E                     l2310:
  3267     064E  3002               	movlw	2
  3268     064F  0644               	xorwf	_segull,w
  3269     0650  0445               	iorwf	_segull+1,w
  3270     0651  1D03               	btfss	3,2
  3271     0652  2E54               	goto	u2011
  3272     0653  2E55               	goto	u2010
  3273     0654                     u2011:
  3274     0654  2E5A               	goto	l2314
  3275     0655                     u2010:
  3276     0655                     l2312:
  3277                           
  3278                           ;Lokaverkefni.c: 384:                 }
  3279     0655  0835               	movf	_kubbur2+1,w
  3280     0656  00AD               	movwf	_pallur+1
  3281     0657  0834               	movf	_kubbur2,w
  3282     0658  00AC               	movwf	_pallur
  3283                           
  3284                           ;Lokaverkefni.c: 385: 
  3285     0659  2E72               	goto	l2322
  3286     065A                     l2314:
  3287     065A  3003               	movlw	3
  3288     065B  0644               	xorwf	_segull,w
  3289     065C  0445               	iorwf	_segull+1,w
  3290     065D  1D03               	btfss	3,2
  3291     065E  2E60               	goto	u2021
  3292     065F  2E61               	goto	u2020
  3293     0660                     u2021:
  3294     0660  2E66               	goto	l2318
  3295     0661                     u2020:
  3296     0661                     l2316:
  3297                           
  3298                           ;Lokaverkefni.c: 387: 
  3299     0661  0833               	movf	_kubbur3+1,w
  3300     0662  00AD               	movwf	_pallur+1
  3301     0663  0832               	movf	_kubbur3,w
  3302     0664  00AC               	movwf	_pallur
  3303                           
  3304                           ;Lokaverkefni.c: 388:             if(pallur == 3){
  3305     0665  2E72               	goto	l2322
  3306     0666                     l2318:
  3307     0666  3004               	movlw	4
  3308     0667  0644               	xorwf	_segull,w
  3309     0668  0445               	iorwf	_segull+1,w
  3310     0669  1D03               	btfss	3,2
  3311     066A  2E6C               	goto	u2031
  3312     066B  2E6D               	goto	u2030
  3313     066C                     u2031:
  3314     066C  2E72               	goto	l286
  3315     066D                     u2030:
  3316     066D                     l2320:
  3317                           
  3318                           ;Lokaverkefni.c: 390:                     RC1 = 1;
  3319     066D  0831               	movf	_kubbur4+1,w
  3320     066E  00AD               	movwf	_pallur+1
  3321     066F  0830               	movf	_kubbur4,w
  3322     0670  00AC               	movwf	_pallur
  3323     0671  2E72               	goto	l2322
  3324     0672                     l286:
  3325     0672                     l2322:
  3326                           
  3327                           ;Lokaverkefni.c: 392:                 if(RE0 == 1){
  3328     0672  3008               	movlw	8
  3329     0673  00F4               	movwf	lcd_chr@character
  3330     0674  082C               	movf	_pallur,w
  3331     0675  3E30               	addlw	48
  3332     0676  00F5               	movwf	lcd_chr@c
  3333     0677  3001               	movlw	1
  3334     0678  120A  158A  22C5  120A  118A  	fcall	_lcd_chr
  3335     067D                     l2324:
  3336                           
  3337                           ;Lokaverkefni.c: 394:                     lcd_out(1,1, "                ");
  3338     067D  1283               	bcf	3,5	;RP0=0, select bank0
  3339     067E  1303               	bcf	3,6	;RP1=0, select bank0
  3340     067F  032C               	decf	_pallur,w
  3341     0680  042D               	iorwf	_pallur+1,w
  3342     0681  1D03               	btfss	3,2
  3343     0682  2E84               	goto	u2041
  3344     0683  2E85               	goto	u2040
  3345     0684                     u2041:
  3346     0684  2EEB               	goto	l2348
  3347     0685                     u2040:
  3348     0685                     l291:	
  3349                           ;Lokaverkefni.c: 395:                     lcd_out(2,1, "                ");
  3350                           
  3351                           
  3352                           ;Lokaverkefni.c: 396:                 }
  3353     0685  1487               	bsf	7,1	;volatile
  3354                           
  3355                           ;Lokaverkefni.c: 397:                 do{
  3356     0686  1E85               	btfss	5,5	;volatile
  3357     0687  2E89               	goto	u2051
  3358     0688  2E8A               	goto	u2050
  3359     0689                     u2051:
  3360     0689  2E85               	goto	l291
  3361     068A                     u2050:
  3362     068A                     l292:
  3363                           
  3364                           ;Lokaverkefni.c: 398:                     lcd_out(1,1, "Vinsmalegast");
  3365     068A  1E85               	btfss	5,5	;volatile
  3366     068B  2E8D               	goto	u2061
  3367     068C  2E8E               	goto	u2060
  3368     068D                     u2061:
  3369     068D  2E9E               	goto	l2330
  3370     068E                     u2060:
  3371     068E                     l2326:
  3372                           
  3373                           ;Lokaverkefni.c: 399:                     lcd_out(2,1, "Pall 3");
  3374     068E  1087               	bcf	7,1	;volatile
  3375     068F                     l2328:
  3376                           
  3377                           ;Lokaverkefni.c: 400:                 }while(RE0 == 1);
  3378     068F  3002               	movlw	2
  3379     0690  1283               	bcf	3,5	;RP0=0, select bank0
  3380     0691  1303               	bcf	3,6	;RP1=0, select bank0
  3381     0692  00D0               	movwf	??_A+2
  3382     0693  3004               	movlw	4
  3383     0694  00CF               	movwf	??_A+1
  3384     0695  30B9               	movlw	185
  3385     0696  00CE               	movwf	??_A
  3386     0697                     u2537:
  3387     0697  0BCE               	decfsz	??_A,f
  3388     0698  2E97               	goto	u2537
  3389     0699  0BCF               	decfsz	??_A+1,f
  3390     069A  2E97               	goto	u2537
  3391     069B  0BD0               	decfsz	??_A+2,f
  3392     069C  2E97               	goto	u2537
  3393     069D  2E9E               	nop2
  3394     069E                     l2330:
  3395                           
  3396                           ;Lokaverkefni.c: 402:                 teljari = 0;
  3397     069E  1283               	bcf	3,5	;RP0=0, select bank0
  3398     069F  1303               	bcf	3,6	;RP1=0, select bank0
  3399     06A0  1E85               	btfss	5,5	;volatile
  3400     06A1  2EA3               	goto	u2071
  3401     06A2  2EA4               	goto	u2070
  3402     06A3                     u2071:
  3403     06A3  2EB9               	goto	l2334
  3404     06A4                     u2070:
  3405     06A4                     l295:	
  3406                           ;Lokaverkefni.c: 403:                 segull = 0;
  3407                           
  3408                           
  3409                           ;Lokaverkefni.c: 404:                 scan = 0;
  3410     06A4  1507               	bsf	7,2	;volatile
  3411                           
  3412                           ;Lokaverkefni.c: 405:                 pallur = 0;
  3413     06A5  1C85               	btfss	5,1	;volatile
  3414     06A6  2EA8               	goto	u2081
  3415     06A7  2EA9               	goto	u2080
  3416     06A8                     u2081:
  3417     06A8  2EA4               	goto	l295
  3418     06A9                     u2080:
  3419     06A9                     l296:
  3420                           
  3421                           ;Lokaverkefni.c: 406:                 lcd_out(1,1, "                 ");
  3422     06A9  1107               	bcf	7,2	;volatile
  3423     06AA                     l2332:
  3424                           
  3425                           ;Lokaverkefni.c: 407:                 lcd_out(2,1, "                 ");
  3426     06AA  3002               	movlw	2
  3427     06AB  1283               	bcf	3,5	;RP0=0, select bank0
  3428     06AC  1303               	bcf	3,6	;RP1=0, select bank0
  3429     06AD  00D0               	movwf	??_A+2
  3430     06AE  3086               	movlw	134
  3431     06AF  00CF               	movwf	??_A+1
  3432     06B0  3098               	movlw	152
  3433     06B1  00CE               	movwf	??_A
  3434     06B2                     u2547:
  3435     06B2  0BCE               	decfsz	??_A,f
  3436     06B3  2EB2               	goto	u2547
  3437     06B4  0BCF               	decfsz	??_A+1,f
  3438     06B5  2EB2               	goto	u2547
  3439     06B6  0BD0               	decfsz	??_A+2,f
  3440     06B7  2EB2               	goto	u2547
  3441     06B8  0000               	nop
  3442     06B9                     l2334:
  3443                           
  3444                           ;Lokaverkefni.c: 409:         }
  3445     06B9  1283               	bcf	3,5	;RP0=0, select bank0
  3446     06BA  1303               	bcf	3,6	;RP1=0, select bank0
  3447     06BB  1C85               	btfss	5,1	;volatile
  3448     06BC  2EBE               	goto	u2091
  3449     06BD  2EBF               	goto	u2090
  3450     06BE                     u2091:
  3451     06BE  2F57               	goto	l2372
  3452     06BF                     u2090:
  3453     06BF                     l298:	
  3454                           ;Lokaverkefni.c: 410:     }while(run == 1);
  3455                           
  3456                           
  3457                           ;Lokaverkefni.c: 411: }
  3458     06BF  1587               	bsf	7,3	;volatile
  3459                           
  3460                           ;Lokaverkefni.c: 412: 
  3461     06C0  1D05               	btfss	5,2	;volatile
  3462     06C1  2EC3               	goto	u2101
  3463     06C2  2EC4               	goto	u2100
  3464     06C3                     u2101:
  3465     06C3  2EBF               	goto	l298
  3466     06C4                     u2100:
  3467     06C4                     l299:
  3468                           
  3469                           ;Lokaverkefni.c: 413: void B(void)
  3470     06C4  1187               	bcf	7,3	;volatile
  3471     06C5                     l2336:
  3472                           
  3473                           ;Lokaverkefni.c: 414: {
  3474     06C5  3002               	movlw	2
  3475     06C6  1283               	bcf	3,5	;RP0=0, select bank0
  3476     06C7  1303               	bcf	3,6	;RP1=0, select bank0
  3477     06C8  00D0               	movwf	??_A+2
  3478     06C9  3086               	movlw	134
  3479     06CA  00CF               	movwf	??_A+1
  3480     06CB  3098               	movlw	152
  3481     06CC  00CE               	movwf	??_A
  3482     06CD                     u2557:
  3483     06CD  0BCE               	decfsz	??_A,f
  3484     06CE  2ECD               	goto	u2557
  3485     06CF  0BCF               	decfsz	??_A+1,f
  3486     06D0  2ECD               	goto	u2557
  3487     06D1  0BD0               	decfsz	??_A+2,f
  3488     06D2  2ECD               	goto	u2557
  3489     06D3  0000               	nop
  3490     06D4                     l2338:
  3491                           
  3492                           ;Lokaverkefni.c: 415:     ManualRun = 1;
  3493     06D4  1283               	bcf	3,5	;RP0=0, select bank0
  3494     06D5  1303               	bcf	3,6	;RP1=0, select bank0
  3495     06D6  01B8               	clrf	_teljari
  3496     06D7  01B9               	clrf	_teljari+1
  3497     06D8                     l2340:
  3498                           
  3499                           ;Lokaverkefni.c: 416:     do{
  3500     06D8  01C4               	clrf	_segull
  3501     06D9  01C5               	clrf	_segull+1
  3502     06DA                     l2342:
  3503                           
  3504                           ;Lokaverkefni.c: 417:         int num;
  3505     06DA  01C2               	clrf	_scan
  3506     06DB  01C3               	clrf	_scan+1
  3507     06DC                     l2344:
  3508                           
  3509                           ;Lokaverkefni.c: 418:         num = KeyPad();
  3510     06DC  01AC               	clrf	_pallur
  3511     06DD  01AD               	clrf	_pallur+1
  3512     06DE                     l2346:
  3513                           
  3514                           ;Lokaverkefni.c: 419:         if(num == -1){
  3515     06DE  01F4               	clrf	lcd_out@character
  3516     06DF  0AF4               	incf	lcd_out@character,f
  3517     06E0  3000               	movlw	low (STR_33| (0+32768))
  3518     06E1  00F5               	movwf	lcd_out@s
  3519     06E2  3090               	movlw	high (STR_33| (0+32768))
  3520     06E3  00F6               	movwf	lcd_out@s+1
  3521     06E4  3001               	movlw	1
  3522     06E5  120A  118A  2014  120A  118A  	fcall	_lcd_out
  3523     06EA  2F57               	goto	l2372
  3524     06EB                     l2348:
  3525     06EB  3002               	movlw	2
  3526     06EC  062C               	xorwf	_pallur,w
  3527     06ED  042D               	iorwf	_pallur+1,w
  3528     06EE  1D03               	btfss	3,2
  3529     06EF  2EF1               	goto	u2111
  3530     06F0  2EF2               	goto	u2110
  3531     06F1                     u2111:
  3532     06F1  2F57               	goto	l2372
  3533     06F2                     u2110:
  3534     06F2                     l302:	
  3535                           ;Lokaverkefni.c: 424:         else if(num == 1) {
  3536                           
  3537                           
  3538                           ;Lokaverkefni.c: 425:             lcd_out(1,1, "Matari          ");
  3539     06F2  1487               	bsf	7,1	;volatile
  3540                           
  3541                           ;Lokaverkefni.c: 426:             lcd_out(2,1, "Faeriband       ");
  3542     06F3  1F05               	btfss	5,6	;volatile
  3543     06F4  2EF6               	goto	u2121
  3544     06F5  2EF7               	goto	u2120
  3545     06F6                     u2121:
  3546     06F6  2EF2               	goto	l302
  3547     06F7                     u2120:
  3548     06F7                     l303:
  3549                           
  3550                           ;Lokaverkefni.c: 428:         }
  3551     06F7  1F05               	btfss	5,6	;volatile
  3552     06F8  2EFA               	goto	u2131
  3553     06F9  2EFB               	goto	u2130
  3554     06FA                     u2131:
  3555     06FA  2F0B               	goto	l2354
  3556     06FB                     u2130:
  3557     06FB                     l2350:
  3558                           
  3559                           ;Lokaverkefni.c: 429:         else if(num == 2){
  3560     06FB  1087               	bcf	7,1	;volatile
  3561     06FC                     l2352:
  3562                           
  3563                           ;Lokaverkefni.c: 430:             lcd_out(1,1, "Flokkari        ");
  3564     06FC  3002               	movlw	2
  3565     06FD  1283               	bcf	3,5	;RP0=0, select bank0
  3566     06FE  1303               	bcf	3,6	;RP1=0, select bank0
  3567     06FF  00D0               	movwf	??_A+2
  3568     0700  3004               	movlw	4
  3569     0701  00CF               	movwf	??_A+1
  3570     0702  30B9               	movlw	185
  3571     0703  00CE               	movwf	??_A
  3572     0704                     u2567:
  3573     0704  0BCE               	decfsz	??_A,f
  3574     0705  2F04               	goto	u2567
  3575     0706  0BCF               	decfsz	??_A+1,f
  3576     0707  2F04               	goto	u2567
  3577     0708  0BD0               	decfsz	??_A+2,f
  3578     0709  2F04               	goto	u2567
  3579     070A  2F0B               	nop2
  3580     070B                     l2354:
  3581                           
  3582                           ;Lokaverkefni.c: 432:             RC1 = 1;
  3583     070B  1283               	bcf	3,5	;RP0=0, select bank0
  3584     070C  1303               	bcf	3,6	;RP1=0, select bank0
  3585     070D  1F05               	btfss	5,6	;volatile
  3586     070E  2F10               	goto	u2141
  3587     070F  2F11               	goto	u2140
  3588     0710                     u2141:
  3589     0710  2F26               	goto	l2358
  3590     0711                     u2140:
  3591     0711                     l306:	
  3592                           ;Lokaverkefni.c: 433:         }
  3593                           
  3594                           
  3595                           ;Lokaverkefni.c: 434:         else if(num == 3){
  3596     0711  1607               	bsf	7,4	;volatile
  3597                           
  3598                           ;Lokaverkefni.c: 435:             lcd_out(1,1, "yta 1 ut        ");
  3599     0712  1D85               	btfss	5,3	;volatile
  3600     0713  2F15               	goto	u2151
  3601     0714  2F16               	goto	u2150
  3602     0715                     u2151:
  3603     0715  2F11               	goto	l306
  3604     0716                     u2150:
  3605     0716                     l307:
  3606                           
  3607                           ;Lokaverkefni.c: 436:             lcd_out(2,1, "                ");
  3608     0716  1207               	bcf	7,4	;volatile
  3609     0717                     l2356:
  3610                           
  3611                           ;Lokaverkefni.c: 437:             RC2 = 1;
  3612     0717  3002               	movlw	2
  3613     0718  1283               	bcf	3,5	;RP0=0, select bank0
  3614     0719  1303               	bcf	3,6	;RP1=0, select bank0
  3615     071A  00D0               	movwf	??_A+2
  3616     071B  3086               	movlw	134
  3617     071C  00CF               	movwf	??_A+1
  3618     071D  3098               	movlw	152
  3619     071E  00CE               	movwf	??_A
  3620     071F                     u2577:
  3621     071F  0BCE               	decfsz	??_A,f
  3622     0720  2F1F               	goto	u2577
  3623     0721  0BCF               	decfsz	??_A+1,f
  3624     0722  2F1F               	goto	u2577
  3625     0723  0BD0               	decfsz	??_A+2,f
  3626     0724  2F1F               	goto	u2577
  3627     0725  0000               	nop
  3628     0726                     l2358:
  3629                           
  3630                           ;Lokaverkefni.c: 439:         else if(num == 4){
  3631     0726  1283               	bcf	3,5	;RP0=0, select bank0
  3632     0727  1303               	bcf	3,6	;RP1=0, select bank0
  3633     0728  1D85               	btfss	5,3	;volatile
  3634     0729  2F2B               	goto	u2161
  3635     072A  2F2C               	goto	u2160
  3636     072B                     u2161:
  3637     072B  2F57               	goto	l2372
  3638     072C                     u2160:
  3639     072C                     l309:	
  3640                           ;Lokaverkefni.c: 440:             lcd_out(1,1, "yta 1 heim      ");
  3641                           
  3642                           
  3643                           ;Lokaverkefni.c: 441:             lcd_out(2,1, "                ");
  3644     072C  1687               	bsf	7,5	;volatile
  3645                           
  3646                           ;Lokaverkefni.c: 442:             RC3 = 1;
  3647     072D  1E05               	btfss	5,4	;volatile
  3648     072E  2F30               	goto	u2171
  3649     072F  2F31               	goto	u2170
  3650     0730                     u2171:
  3651     0730  2F2C               	goto	l309
  3652     0731                     u2170:
  3653     0731                     l310:
  3654                           
  3655                           ;Lokaverkefni.c: 443:         }
  3656     0731  1287               	bcf	7,5	;volatile
  3657     0732                     l2360:
  3658                           
  3659                           ;Lokaverkefni.c: 444:         else if(num == 5){
  3660     0732  3002               	movlw	2
  3661     0733  1283               	bcf	3,5	;RP0=0, select bank0
  3662     0734  1303               	bcf	3,6	;RP1=0, select bank0
  3663     0735  00D0               	movwf	??_A+2
  3664     0736  3086               	movlw	134
  3665     0737  00CF               	movwf	??_A+1
  3666     0738  3098               	movlw	152
  3667     0739  00CE               	movwf	??_A
  3668     073A                     u2587:
  3669     073A  0BCE               	decfsz	??_A,f
  3670     073B  2F3A               	goto	u2587
  3671     073C  0BCF               	decfsz	??_A+1,f
  3672     073D  2F3A               	goto	u2587
  3673     073E  0BD0               	decfsz	??_A+2,f
  3674     073F  2F3A               	goto	u2587
  3675     0740  0000               	nop
  3676     0741                     l2362:
  3677                           
  3678                           ;Lokaverkefni.c: 445:             lcd_out(1,1, "yta 2 ut        ");
  3679     0741  1283               	bcf	3,5	;RP0=0, select bank0
  3680     0742  1303               	bcf	3,6	;RP1=0, select bank0
  3681     0743  01B8               	clrf	_teljari
  3682     0744  01B9               	clrf	_teljari+1
  3683     0745                     l2364:
  3684                           
  3685                           ;Lokaverkefni.c: 446:             lcd_out(2,1, "                ");
  3686     0745  01C4               	clrf	_segull
  3687     0746  01C5               	clrf	_segull+1
  3688     0747                     l2366:
  3689                           
  3690                           ;Lokaverkefni.c: 447:             RC4 = 1;
  3691     0747  01C2               	clrf	_scan
  3692     0748  01C3               	clrf	_scan+1
  3693     0749                     l2368:
  3694                           
  3695                           ;Lokaverkefni.c: 448:         }
  3696     0749  01AC               	clrf	_pallur
  3697     074A  01AD               	clrf	_pallur+1
  3698     074B                     l2370:
  3699                           
  3700                           ;Lokaverkefni.c: 449:         else if(num == 6){
  3701     074B  01F4               	clrf	lcd_out@character
  3702     074C  0AF4               	incf	lcd_out@character,f
  3703     074D  3000               	movlw	low (STR_33| (0+32768))
  3704     074E  00F5               	movwf	lcd_out@s
  3705     074F  3090               	movlw	high (STR_33| (0+32768))
  3706     0750  00F6               	movwf	lcd_out@s+1
  3707     0751  3001               	movlw	1
  3708     0752  120A  118A  2014  120A  118A  	fcall	_lcd_out
  3709     0757                     l2372:
  3710                           
  3711                           ;Lokaverkefni.c: 454:         else if(num == 0){
  3712     0757  3003               	movlw	3
  3713     0758  1283               	bcf	3,5	;RP0=0, select bank0
  3714     0759  1303               	bcf	3,6	;RP1=0, select bank0
  3715     075A  062C               	xorwf	_pallur,w
  3716     075B  042D               	iorwf	_pallur+1,w
  3717     075C  1D03               	btfss	3,2
  3718     075D  2F5F               	goto	u2181
  3719     075E  2F60               	goto	u2180
  3720     075F                     u2181:
  3721     075F  2FD2               	goto	l2396
  3722     0760                     u2180:
  3723     0760  2F62               	goto	l312
  3724     0761                     l313:
  3725                           
  3726                           ;Lokaverkefni.c: 456:             lcd_out(2,1, "Haetta           ");
  3727     0761  1487               	bsf	7,1	;volatile
  3728     0762                     l312:	
  3729                           ;Lokaverkefni.c: 457:             _delay((unsigned long)((350)*(8000000/4000.0)));
  3730                           
  3731                           
  3732                           ;Lokaverkefni.c: 455:             lcd_out(1,1, "Manual          ");
  3733     0762  1C09               	btfss	9,0	;volatile
  3734     0763  2F65               	goto	u2191
  3735     0764  2F66               	goto	u2190
  3736     0765                     u2191:
  3737     0765  2F61               	goto	l313
  3738     0766                     u2190:
  3739     0766                     l314:
  3740                           
  3741                           ;Lokaverkefni.c: 458:             ManualRun = 0;
  3742     0766  1C09               	btfss	9,0	;volatile
  3743     0767  2F69               	goto	u2201
  3744     0768  2F6A               	goto	u2200
  3745     0769                     u2201:
  3746     0769  2F83               	goto	l316
  3747     076A                     u2200:
  3748     076A                     l2376:
  3749                           
  3750                           ;Lokaverkefni.c: 459:             reset();
  3751     076A  1087               	bcf	7,1	;volatile
  3752     076B                     l2378:
  3753                           
  3754                           ;Lokaverkefni.c: 460:             _delay((unsigned long)((150)*(8000000/4000.0)));
  3755     076B  01F4               	clrf	lcd_out@character
  3756     076C  0AF4               	incf	lcd_out@character,f
  3757     076D  3001               	movlw	low ((STR_33+1)| (0+32768))
  3758     076E  00F5               	movwf	lcd_out@s
  3759     076F  3090               	movlw	high ((STR_33+1)| (0+32768))
  3760     0770  00F6               	movwf	lcd_out@s+1
  3761     0771  3001               	movlw	1
  3762     0772  120A  118A  2014  120A  118A  	fcall	_lcd_out
  3763                           
  3764                           ;Lokaverkefni.c: 461:         }
  3765     0777  01F4               	clrf	lcd_out@character
  3766     0778  0AF4               	incf	lcd_out@character,f
  3767     0779  3001               	movlw	low ((STR_33+1)| (0+32768))
  3768     077A  00F5               	movwf	lcd_out@s
  3769     077B  3090               	movlw	high ((STR_33+1)| (0+32768))
  3770     077C  00F6               	movwf	lcd_out@s+1
  3771     077D  3002               	movlw	2
  3772     077E  120A  118A  2014  120A  118A  	fcall	_lcd_out
  3773     0783                     l316:	
  3774                           ;Lokaverkefni.c: 463: }
  3775                           
  3776                           
  3777                           ;Lokaverkefni.c: 464: 
  3778     0783  01F4               	clrf	lcd_out@character
  3779     0784  0AF4               	incf	lcd_out@character,f
  3780     0785  3043               	movlw	low (STR_37| (0+32768))
  3781     0786  00F5               	movwf	lcd_out@s
  3782     0787  3091               	movlw	high (STR_37| (0+32768))
  3783     0788  00F6               	movwf	lcd_out@s+1
  3784     0789  3001               	movlw	1
  3785     078A  120A  118A  2014  120A  118A  	fcall	_lcd_out
  3786                           
  3787                           ;Lokaverkefni.c: 465: void main()
  3788     078F  01F4               	clrf	lcd_out@character
  3789     0790  0AF4               	incf	lcd_out@character,f
  3790     0791  309B               	movlw	low (STR_38| (0+32768))
  3791     0792  00F5               	movwf	lcd_out@s
  3792     0793  3091               	movlw	high (STR_38| (0+32768))
  3793     0794  00F6               	movwf	lcd_out@s+1
  3794     0795  3002               	movlw	2
  3795     0796  120A  118A  2014  120A  118A  	fcall	_lcd_out
  3796     079B                     l2380:
  3797                           
  3798                           ;Lokaverkefni.c: 466: {
  3799     079B  1283               	bcf	3,5	;RP0=0, select bank0
  3800     079C  1303               	bcf	3,6	;RP1=0, select bank0
  3801     079D  1809               	btfsc	9,0	;volatile
  3802     079E  2FA0               	goto	u2211
  3803     079F  2FA1               	goto	u2210
  3804     07A0                     u2211:
  3805     07A0  2F83               	goto	l316
  3806     07A1                     u2210:
  3807     07A1                     l2382:
  3808                           
  3809                           ;Lokaverkefni.c: 467: 
  3810     07A1  3002               	movlw	2
  3811     07A2  1283               	bcf	3,5	;RP0=0, select bank0
  3812     07A3  1303               	bcf	3,6	;RP1=0, select bank0
  3813     07A4  00D0               	movwf	??_A+2
  3814     07A5  3086               	movlw	134
  3815     07A6  00CF               	movwf	??_A+1
  3816     07A7  3098               	movlw	152
  3817     07A8  00CE               	movwf	??_A
  3818     07A9                     u2597:
  3819     07A9  0BCE               	decfsz	??_A,f
  3820     07AA  2FA9               	goto	u2597
  3821     07AB  0BCF               	decfsz	??_A+1,f
  3822     07AC  2FA9               	goto	u2597
  3823     07AD  0BD0               	decfsz	??_A+2,f
  3824     07AE  2FA9               	goto	u2597
  3825     07AF  0000               	nop
  3826     07B0                     l2384:
  3827                           
  3828                           ;Lokaverkefni.c: 468:  OSCCON = 0x75;
  3829     07B0  1283               	bcf	3,5	;RP0=0, select bank0
  3830     07B1  1303               	bcf	3,6	;RP1=0, select bank0
  3831     07B2  01B8               	clrf	_teljari
  3832     07B3  01B9               	clrf	_teljari+1
  3833     07B4                     l2386:
  3834                           
  3835                           ;Lokaverkefni.c: 469:  ANSEL = 0x00;
  3836     07B4  01C4               	clrf	_segull
  3837     07B5  01C5               	clrf	_segull+1
  3838     07B6                     l2388:
  3839                           
  3840                           ;Lokaverkefni.c: 470:  ANSELH = 0x00;
  3841     07B6  01C2               	clrf	_scan
  3842     07B7  01C3               	clrf	_scan+1
  3843     07B8                     l2390:
  3844                           
  3845                           ;Lokaverkefni.c: 471:  CM1CON0 = CM1CON0 & 0x7F;
  3846     07B8  01AC               	clrf	_pallur
  3847     07B9  01AD               	clrf	_pallur+1
  3848     07BA                     l2392:
  3849                           
  3850                           ;Lokaverkefni.c: 472:  CM2CON0 = CM2CON0 & 0x7F;
  3851     07BA  01F4               	clrf	lcd_out@character
  3852     07BB  0AF4               	incf	lcd_out@character,f
  3853     07BC  3000               	movlw	low (STR_33| (0+32768))
  3854     07BD  00F5               	movwf	lcd_out@s
  3855     07BE  3090               	movlw	high (STR_33| (0+32768))
  3856     07BF  00F6               	movwf	lcd_out@s+1
  3857     07C0  3001               	movlw	1
  3858     07C1  120A  118A  2014  120A  118A  	fcall	_lcd_out
  3859     07C6                     l2394:
  3860                           
  3861                           ;Lokaverkefni.c: 473:  INTCON = 0x00;
  3862     07C6  01F4               	clrf	lcd_out@character
  3863     07C7  0AF4               	incf	lcd_out@character,f
  3864     07C8  3000               	movlw	low (STR_33| (0+32768))
  3865     07C9  00F5               	movwf	lcd_out@s
  3866     07CA  3090               	movlw	high (STR_33| (0+32768))
  3867     07CB  00F6               	movwf	lcd_out@s+1
  3868     07CC  3002               	movlw	2
  3869     07CD  120A  118A  2014  120A  118A  	fcall	_lcd_out
  3870     07D2                     l2396:
  3871                           
  3872                           ;Lokaverkefni.c: 476:     RBIE = 1;
  3873     07D2  1283               	bcf	3,5	;RP0=0, select bank0
  3874     07D3  1303               	bcf	3,6	;RP1=0, select bank0
  3875     07D4  032E               	decf	_run,w
  3876     07D5  042F               	iorwf	_run+1,w
  3877     07D6  1903               	btfsc	3,2
  3878     07D7  2FD9               	goto	u2221
  3879     07D8  2FDA               	goto	u2220
  3880     07D9                     u2221:
  3881     07D9  2BBC               	goto	l2166
  3882     07DA                     u2220:
  3883     07DA                     l319:
  3884     07DA  0008               	return
  3885     07DB                     __end_of_A:
  3886                           
  3887                           	psect	text6
  3888     0AC5                     __ptext6:	
  3889 ;; *************** function _lcd_chr *****************
  3890 ;; Defined at:
  3891 ;;		line 85 in file "./LCD.c"
  3892 ;; Parameters:    Size  Location     Type
  3893 ;;  line            1    wreg     unsigned char 
  3894 ;;  character       1    4[COMMON] unsigned char 
  3895 ;;  c               1    5[COMMON] unsigned char 
  3896 ;; Auto vars:     Size  Location     Type
  3897 ;;  line            1    7[COMMON] unsigned char 
  3898 ;; Return value:  Size  Location     Type
  3899 ;;                  1    wreg      void 
  3900 ;; Registers used:
  3901 ;;		wreg, status,2, status,0, pclath, cstack
  3902 ;; Tracked objects:
  3903 ;;		On entry : 0/0
  3904 ;;		On exit  : 0/0
  3905 ;;		Unchanged: 0/0
  3906 ;; Data sizes:     COMMON   BANK0   BANK1   BANK3   BANK2
  3907 ;;      Params:         2       0       0       0       0
  3908 ;;      Locals:         1       0       0       0       0
  3909 ;;      Temps:          1       0       0       0       0
  3910 ;;      Totals:         4       0       0       0       0
  3911 ;;Total ram usage:        4 bytes
  3912 ;; Hardware stack levels used: 1
  3913 ;; Hardware stack levels required when called: 2
  3914 ;; This function calls:
  3915 ;;		_lcd_goto
  3916 ;;		_lcd_write
  3917 ;; This function is called by:
  3918 ;;		_A
  3919 ;; This function uses a non-reentrant model
  3920 ;;
  3921                           
  3922     0AC5                     _lcd_chr:	
  3923                           ;psect for function _lcd_chr
  3924                           
  3925                           
  3926                           ;incstack = 0
  3927                           ; Regs used in _lcd_chr: [wreg+status,2+status,0+pclath+cstack]
  3928                           ;lcd_chr@line stored from wreg
  3929     0AC5  00F7               	movwf	lcd_chr@line
  3930     0AC6                     l1976:
  3931                           
  3932                           ;./LCD.c: 86:  lcd_goto( ( 0x40 * ( line - 1 ) ) + ( character - 1 ) );
  3933     0AC6  0877               	movf	lcd_chr@line,w
  3934     0AC7  00F6               	movwf	??_lcd_chr
  3935     0AC8  3006               	movlw	6
  3936     0AC9                     u1395:
  3937     0AC9  1003               	clrc
  3938     0ACA  0DF6               	rlf	??_lcd_chr,f
  3939     0ACB  3EFF               	addlw	-1
  3940     0ACC  1D03               	skipz
  3941     0ACD  2AC9               	goto	u1395
  3942     0ACE  0874               	movf	lcd_chr@character,w
  3943     0ACF  0776               	addwf	??_lcd_chr,w
  3944     0AD0  3EBF               	addlw	191
  3945     0AD1  120A  118A  2008  120A  158A  	fcall	_lcd_goto
  3946     0AD6                     l1978:
  3947                           
  3948                           ;./LCD.c: 88:  RB4 = 1;
  3949     0AD6  1283               	bcf	3,5	;RP0=0, select bank0
  3950     0AD7  1303               	bcf	3,6	;RP1=0, select bank0
  3951     0AD8  1606               	bsf	6,4	;volatile
  3952                           
  3953                           ;./LCD.c: 89:  lcd_write( c );
  3954     0AD9  0875               	movf	lcd_chr@c,w
  3955     0ADA  120A  158A  22E0  120A  158A  	fcall	_lcd_write
  3956     0ADF                     l106:
  3957     0ADF  0008               	return
  3958     0AE0                     __end_of_lcd_chr:
  3959                           
  3960                           	psect	text7
  3961     004E                     __ptext7:	
  3962 ;; *************** function _Val *****************
  3963 ;; Defined at:
  3964 ;;		line 171 in file "Lokaverkefni.c"
  3965 ;; Parameters:    Size  Location     Type
  3966 ;;		None
  3967 ;; Auto vars:     Size  Location     Type
  3968 ;;  num             2    0[BANK0 ] int 
  3969 ;; Return value:  Size  Location     Type
  3970 ;;                  1    wreg      void 
  3971 ;; Registers used:
  3972 ;;		wreg, fsr0l, fsr0h, status,2, status,0, btemp+1, pclath, cstack
  3973 ;; Tracked objects:
  3974 ;;		On entry : 0/0
  3975 ;;		On exit  : 0/0
  3976 ;;		Unchanged: 0/0
  3977 ;; Data sizes:     COMMON   BANK0   BANK1   BANK3   BANK2
  3978 ;;      Params:         0       0       0       0       0
  3979 ;;      Locals:         0       2       0       0       0
  3980 ;;      Temps:          3       0       0       0       0
  3981 ;;      Totals:         3       2       0       0       0
  3982 ;;Total ram usage:        5 bytes
  3983 ;; Hardware stack levels used: 1
  3984 ;; Hardware stack levels required when called: 3
  3985 ;; This function calls:
  3986 ;;		_KeyPad
  3987 ;;		_lcd_chr_cp
  3988 ;;		_lcd_out
  3989 ;; This function is called by:
  3990 ;;		_A
  3991 ;; This function uses a non-reentrant model
  3992 ;;
  3993                           
  3994     004E                     _Val:	
  3995                           ;psect for function _Val
  3996                           
  3997     004E                     l1986:	
  3998                           ;incstack = 0
  3999                           ; Regs used in _Val: [wreg-fsr0h+status,2+status,0+btemp+1+pclath+cstack]
  4000                           
  4001                           
  4002                           ;Lokaverkefni.c: 173:             kubbur4 = num;
  4003     004E  3004               	movlw	4
  4004     004F  00FC               	movwf	??_Val+2
  4005     0050  308E               	movlw	142
  4006     0051  00FB               	movwf	??_Val+1
  4007     0052  3012               	movlw	18
  4008     0053  00FA               	movwf	??_Val
  4009     0054                     u2607:
  4010     0054  0BFA               	decfsz	??_Val,f
  4011     0055  2854               	goto	u2607
  4012     0056  0BFB               	decfsz	??_Val+1,f
  4013     0057  2854               	goto	u2607
  4014     0058  0BFC               	decfsz	??_Val+2,f
  4015     0059  2854               	goto	u2607
  4016     005A  0000               	nop
  4017                           
  4018                           ;Lokaverkefni.c: 174:             _delay((unsigned long)((15)*(8000000/4000.0)));
  4019     005B  30FF               	movlw	255
  4020     005C  1283               	bcf	3,5	;RP0=0, select bank0
  4021     005D  1303               	bcf	3,6	;RP1=0, select bank0
  4022     005E  00CC               	movwf	Val@num
  4023     005F  30FF               	movlw	255
  4024     0060  00CD               	movwf	Val@num+1
  4025     0061                     l1988:
  4026                           
  4027                           ;Lokaverkefni.c: 175:         }
  4028     0061  01F4               	clrf	lcd_out@character
  4029     0062  0AF4               	incf	lcd_out@character,f
  4030     0063  3001               	movlw	low ((STR_33+1)| (0+32768))
  4031     0064  00F5               	movwf	lcd_out@s
  4032     0065  3090               	movlw	high ((STR_33+1)| (0+32768))
  4033     0066  00F6               	movwf	lcd_out@s+1
  4034     0067  3002               	movlw	2
  4035     0068  120A  118A  2014  120A  118A  	fcall	_lcd_out
  4036                           
  4037                           ;Lokaverkefni.c: 176:     }
  4038     006D  28EC               	goto	l2006
  4039     006E                     l1990:
  4040                           
  4041                           ;Lokaverkefni.c: 177:     lcd_chr_cp(num+48);
  4042     006E  01F4               	clrf	lcd_out@character
  4043     006F  0AF4               	incf	lcd_out@character,f
  4044     0070  3014               	movlw	low (STR_4| (0+32768))
  4045     0071  00F5               	movwf	lcd_out@s
  4046     0072  3091               	movlw	high (STR_4| (0+32768))
  4047     0073  00F6               	movwf	lcd_out@s+1
  4048     0074  3001               	movlw	1
  4049     0075  120A  118A  2014  120A  118A  	fcall	_lcd_out
  4050                           
  4051                           ;Lokaverkefni.c: 178:     _delay((unsigned long)((15)*(8000000/4000.0)));
  4052     007A  01F4               	clrf	lcd_out@character
  4053     007B  0AF4               	incf	lcd_out@character,f
  4054     007C  3066               	movlw	low (STR_5| (0+32768))
  4055     007D  00F5               	movwf	lcd_out@s
  4056     007E  3091               	movlw	high (STR_5| (0+32768))
  4057     007F  00F6               	movwf	lcd_out@s+1
  4058     0080  3002               	movlw	2
  4059     0081  120A  118A  2014  120A  118A  	fcall	_lcd_out
  4060     0086                     l1992:
  4061                           
  4062                           ;Lokaverkefni.c: 179:     num = -1;
  4063     0086  120A  158A  260A  120A  118A  	fcall	_KeyPad
  4064     008B  0871               	movf	?_KeyPad+1,w
  4065     008C  1283               	bcf	3,5	;RP0=0, select bank0
  4066     008D  1303               	bcf	3,6	;RP1=0, select bank0
  4067     008E  00CD               	movwf	Val@num+1
  4068     008F  0870               	movf	?_KeyPad,w
  4069     0090  00CC               	movwf	Val@num
  4070     0091                     l1994:
  4071                           
  4072                           ;Lokaverkefni.c: 180:     _delay((unsigned long)((350)*(8000000/4000.0)));
  4073     0091  084D               	movf	Val@num+1,w
  4074     0092  3A80               	xorlw	128
  4075     0093  00FF               	movwf	btemp+1
  4076     0094  3080               	movlw	128
  4077     0095  027F               	subwf	btemp+1,w
  4078     0096  1D03               	skipz
  4079     0097  289A               	goto	u1465
  4080     0098  3001               	movlw	1
  4081     0099  024C               	subwf	Val@num,w
  4082     009A                     u1465:
  4083     009A  1803               	skipnc
  4084     009B  289D               	goto	u1461
  4085     009C  289E               	goto	u1460
  4086     009D                     u1461:
  4087     009D  28C0               	goto	l2000
  4088     009E                     u1460:
  4089     009E                     l1996:
  4090     009E  1283               	bcf	3,5	;RP0=0, select bank0
  4091     009F  1303               	bcf	3,6	;RP1=0, select bank0
  4092     00A0  084D               	movf	Val@num+1,w
  4093     00A1  3A80               	xorlw	128
  4094     00A2  00FF               	movwf	btemp+1
  4095     00A3  3080               	movlw	128
  4096     00A4  027F               	subwf	btemp+1,w
  4097     00A5  1D03               	skipz
  4098     00A6  28A9               	goto	u1475
  4099     00A7  3004               	movlw	4
  4100     00A8  024C               	subwf	Val@num,w
  4101     00A9                     u1475:
  4102     00A9  1C03               	skipc
  4103     00AA  28AC               	goto	u1471
  4104     00AB  28AD               	goto	u1470
  4105     00AC                     u1471:
  4106     00AC  28C0               	goto	l2000
  4107     00AD                     u1470:
  4108     00AD                     l1998:
  4109                           
  4110                           ;Lokaverkefni.c: 181:     lcd_out(1,1, "                ");
  4111     00AD  30FF               	movlw	255
  4112     00AE  1283               	bcf	3,5	;RP0=0, select bank0
  4113     00AF  1303               	bcf	3,6	;RP1=0, select bank0
  4114     00B0  00CC               	movwf	Val@num
  4115     00B1  30FF               	movlw	255
  4116     00B2  00CD               	movwf	Val@num+1
  4117                           
  4118                           ;Lokaverkefni.c: 182:     lcd_out(2,1, "                ");
  4119     00B3  3006               	movlw	6
  4120     00B4  00FC               	movwf	??_Val+2
  4121     00B5  3013               	movlw	19
  4122     00B6  00FB               	movwf	??_Val+1
  4123     00B7  30AD               	movlw	173
  4124     00B8  00FA               	movwf	??_Val
  4125     00B9                     u2617:
  4126     00B9  0BFA               	decfsz	??_Val,f
  4127     00BA  28B9               	goto	u2617
  4128     00BB  0BFB               	decfsz	??_Val+1,f
  4129     00BC  28B9               	goto	u2617
  4130     00BD  0BFC               	decfsz	??_Val+2,f
  4131     00BE  28B9               	goto	u2617
  4132     00BF  28C0               	nop2
  4133     00C0                     l2000:
  4134                           
  4135                           ;Lokaverkefni.c: 184: }
  4136     00C0  1283               	bcf	3,5	;RP0=0, select bank0
  4137     00C1  1303               	bcf	3,6	;RP1=0, select bank0
  4138     00C2  084D               	movf	Val@num+1,w
  4139     00C3  3A80               	xorlw	128
  4140     00C4  00FF               	movwf	btemp+1
  4141     00C5  3080               	movlw	128
  4142     00C6  027F               	subwf	btemp+1,w
  4143     00C7  1D03               	skipz
  4144     00C8  28CB               	goto	u1485
  4145     00C9  3001               	movlw	1
  4146     00CA  024C               	subwf	Val@num,w
  4147     00CB                     u1485:
  4148     00CB  1C03               	skipc
  4149     00CC  28CE               	goto	u1481
  4150     00CD  28CF               	goto	u1480
  4151     00CE                     u1481:
  4152     00CE  28EC               	goto	l2006
  4153     00CF                     u1480:
  4154     00CF                     l2002:
  4155     00CF  1283               	bcf	3,5	;RP0=0, select bank0
  4156     00D0  1303               	bcf	3,6	;RP1=0, select bank0
  4157     00D1  084D               	movf	Val@num+1,w
  4158     00D2  3A80               	xorlw	128
  4159     00D3  00FF               	movwf	btemp+1
  4160     00D4  3080               	movlw	128
  4161     00D5  027F               	subwf	btemp+1,w
  4162     00D6  1D03               	skipz
  4163     00D7  28DA               	goto	u1495
  4164     00D8  3004               	movlw	4
  4165     00D9  024C               	subwf	Val@num,w
  4166     00DA                     u1495:
  4167     00DA  1803               	skipnc
  4168     00DB  28DD               	goto	u1491
  4169     00DC  28DE               	goto	u1490
  4170     00DD                     u1491:
  4171     00DD  28EC               	goto	l2006
  4172     00DE                     u1490:
  4173     00DE                     l2004:
  4174                           
  4175                           ;Lokaverkefni.c: 185: 
  4176     00DE  1283               	bcf	3,5	;RP0=0, select bank0
  4177     00DF  1303               	bcf	3,6	;RP1=0, select bank0
  4178     00E0  084D               	movf	Val@num+1,w
  4179     00E1  00B7               	movwf	_kubbur1+1
  4180     00E2  084C               	movf	Val@num,w
  4181     00E3  00B6               	movwf	_kubbur1
  4182                           
  4183                           ;Lokaverkefni.c: 186: void A(void)
  4184     00E4  3027               	movlw	39
  4185     00E5  00FB               	movwf	??_Val+1
  4186     00E6  30F5               	movlw	245
  4187     00E7  00FA               	movwf	??_Val
  4188     00E8                     u2627:
  4189     00E8  0BFA               	decfsz	??_Val,f
  4190     00E9  28E8               	goto	u2627
  4191     00EA  0BFB               	decfsz	??_Val+1,f
  4192     00EB  28E8               	goto	u2627
  4193     00EC                     l2006:
  4194                           
  4195                           ;Lokaverkefni.c: 176:     }
  4196     00EC  1283               	bcf	3,5	;RP0=0, select bank0
  4197     00ED  1303               	bcf	3,6	;RP1=0, select bank0
  4198     00EE  0A4C               	incf	Val@num,w
  4199     00EF  1D03               	skipz
  4200     00F0  28F6               	goto	u1500
  4201     00F1  0A4D               	incf	Val@num+1,w
  4202     00F2  1903               	btfsc	3,2
  4203     00F3  28F5               	goto	u1501
  4204     00F4  28F6               	goto	u1500
  4205     00F5                     u1501:
  4206     00F5  286E               	goto	l1990
  4207     00F6                     u1500:
  4208     00F6                     l2008:
  4209                           
  4210                           ;Lokaverkefni.c: 189: 
  4211     00F6  084C               	movf	Val@num,w
  4212     00F7  3E30               	addlw	48
  4213     00F8  120A  158A  22A7  120A  118A  	fcall	_lcd_chr_cp
  4214     00FD                     l2010:
  4215                           
  4216                           ;Lokaverkefni.c: 190:         segull = 0;
  4217     00FD  3027               	movlw	39
  4218     00FE  00FB               	movwf	??_Val+1
  4219     00FF  30F5               	movlw	245
  4220     0100  00FA               	movwf	??_Val
  4221     0101                     u2637:
  4222     0101  0BFA               	decfsz	??_Val,f
  4223     0102  2901               	goto	u2637
  4224     0103  0BFB               	decfsz	??_Val+1,f
  4225     0104  2901               	goto	u2637
  4226     0105                     l2012:
  4227                           
  4228                           ;Lokaverkefni.c: 191:         teljari = 0;
  4229     0105  30FF               	movlw	255
  4230     0106  1283               	bcf	3,5	;RP0=0, select bank0
  4231     0107  1303               	bcf	3,6	;RP1=0, select bank0
  4232     0108  00CC               	movwf	Val@num
  4233     0109  30FF               	movlw	255
  4234     010A  00CD               	movwf	Val@num+1
  4235     010B                     l2014:
  4236                           
  4237                           ;Lokaverkefni.c: 192:         run = 1;
  4238     010B  3004               	movlw	4
  4239     010C  00FC               	movwf	??_Val+2
  4240     010D  308E               	movlw	142
  4241     010E  00FB               	movwf	??_Val+1
  4242     010F  3012               	movlw	18
  4243     0110  00FA               	movwf	??_Val
  4244     0111                     u2647:
  4245     0111  0BFA               	decfsz	??_Val,f
  4246     0112  2911               	goto	u2647
  4247     0113  0BFB               	decfsz	??_Val+1,f
  4248     0114  2911               	goto	u2647
  4249     0115  0BFC               	decfsz	??_Val+2,f
  4250     0116  2911               	goto	u2647
  4251     0117  0000               	nop
  4252     0118                     l2016:
  4253                           
  4254                           ;Lokaverkefni.c: 193:         Val();
  4255     0118  01F4               	clrf	lcd_out@character
  4256     0119  0AF4               	incf	lcd_out@character,f
  4257     011A  3001               	movlw	low ((STR_33+1)| (0+32768))
  4258     011B  00F5               	movwf	lcd_out@s
  4259     011C  3090               	movlw	high ((STR_33+1)| (0+32768))
  4260     011D  00F6               	movwf	lcd_out@s+1
  4261     011E  3002               	movlw	2
  4262     011F  120A  118A  2014  120A  118A  	fcall	_lcd_out
  4263                           
  4264                           ;Lokaverkefni.c: 194:     }
  4265     0124  29A3               	goto	l2034
  4266     0125                     l2018:
  4267                           
  4268                           ;Lokaverkefni.c: 195:     _delay((unsigned long)((350)*(8000000/4000.0)));
  4269     0125  01F4               	clrf	lcd_out@character
  4270     0126  0AF4               	incf	lcd_out@character,f
  4271     0127  3014               	movlw	low (STR_4| (0+32768))
  4272     0128  00F5               	movwf	lcd_out@s
  4273     0129  3091               	movlw	high (STR_4| (0+32768))
  4274     012A  00F6               	movwf	lcd_out@s+1
  4275     012B  3001               	movlw	1
  4276     012C  120A  118A  2014  120A  118A  	fcall	_lcd_out
  4277                           
  4278                           ;Lokaverkefni.c: 196:     if(RA7 == 1){
  4279     0131  01F4               	clrf	lcd_out@character
  4280     0132  0AF4               	incf	lcd_out@character,f
  4281     0133  306F               	movlw	low (STR_8| (0+32768))
  4282     0134  00F5               	movwf	lcd_out@s
  4283     0135  3091               	movlw	high (STR_8| (0+32768))
  4284     0136  00F6               	movwf	lcd_out@s+1
  4285     0137  3002               	movlw	2
  4286     0138  120A  118A  2014  120A  118A  	fcall	_lcd_out
  4287     013D                     l2020:
  4288                           
  4289                           ;Lokaverkefni.c: 197:         lcd_out(1,1, "                ");
  4290     013D  120A  158A  260A  120A  118A  	fcall	_KeyPad
  4291     0142  0871               	movf	?_KeyPad+1,w
  4292     0143  1283               	bcf	3,5	;RP0=0, select bank0
  4293     0144  1303               	bcf	3,6	;RP1=0, select bank0
  4294     0145  00CD               	movwf	Val@num+1
  4295     0146  0870               	movf	?_KeyPad,w
  4296     0147  00CC               	movwf	Val@num
  4297     0148                     l2022:
  4298                           
  4299                           ;Lokaverkefni.c: 198:         lcd_out(1,2, "                ");
  4300     0148  084D               	movf	Val@num+1,w
  4301     0149  3A80               	xorlw	128
  4302     014A  00FF               	movwf	btemp+1
  4303     014B  3080               	movlw	128
  4304     014C  027F               	subwf	btemp+1,w
  4305     014D  1D03               	skipz
  4306     014E  2951               	goto	u1515
  4307     014F  3001               	movlw	1
  4308     0150  024C               	subwf	Val@num,w
  4309     0151                     u1515:
  4310     0151  1803               	skipnc
  4311     0152  2954               	goto	u1511
  4312     0153  2955               	goto	u1510
  4313     0154                     u1511:
  4314     0154  2977               	goto	l2028
  4315     0155                     u1510:
  4316     0155                     l2024:
  4317     0155  1283               	bcf	3,5	;RP0=0, select bank0
  4318     0156  1303               	bcf	3,6	;RP1=0, select bank0
  4319     0157  084D               	movf	Val@num+1,w
  4320     0158  3A80               	xorlw	128
  4321     0159  00FF               	movwf	btemp+1
  4322     015A  3080               	movlw	128
  4323     015B  027F               	subwf	btemp+1,w
  4324     015C  1D03               	skipz
  4325     015D  2960               	goto	u1525
  4326     015E  3004               	movlw	4
  4327     015F  024C               	subwf	Val@num,w
  4328     0160                     u1525:
  4329     0160  1C03               	skipc
  4330     0161  2963               	goto	u1521
  4331     0162  2964               	goto	u1520
  4332     0163                     u1521:
  4333     0163  2977               	goto	l2028
  4334     0164                     u1520:
  4335     0164                     l2026:
  4336                           
  4337                           ;Lokaverkefni.c: 199:         do{
  4338     0164  30FF               	movlw	255
  4339     0165  1283               	bcf	3,5	;RP0=0, select bank0
  4340     0166  1303               	bcf	3,6	;RP1=0, select bank0
  4341     0167  00CC               	movwf	Val@num
  4342     0168  30FF               	movlw	255
  4343     0169  00CD               	movwf	Val@num+1
  4344                           
  4345                           ;Lokaverkefni.c: 200:             lcd_out(1,1, "Vantar kubb");
  4346     016A  3006               	movlw	6
  4347     016B  00FC               	movwf	??_Val+2
  4348     016C  3013               	movlw	19
  4349     016D  00FB               	movwf	??_Val+1
  4350     016E  30AD               	movlw	173
  4351     016F  00FA               	movwf	??_Val
  4352     0170                     u2657:
  4353     0170  0BFA               	decfsz	??_Val,f
  4354     0171  2970               	goto	u2657
  4355     0172  0BFB               	decfsz	??_Val+1,f
  4356     0173  2970               	goto	u2657
  4357     0174  0BFC               	decfsz	??_Val+2,f
  4358     0175  2970               	goto	u2657
  4359     0176  2977               	nop2
  4360     0177                     l2028:
  4361                           
  4362                           ;Lokaverkefni.c: 202:         lcd_out(1,1, "                ");
  4363     0177  1283               	bcf	3,5	;RP0=0, select bank0
  4364     0178  1303               	bcf	3,6	;RP1=0, select bank0
  4365     0179  084D               	movf	Val@num+1,w
  4366     017A  3A80               	xorlw	128
  4367     017B  00FF               	movwf	btemp+1
  4368     017C  3080               	movlw	128
  4369     017D  027F               	subwf	btemp+1,w
  4370     017E  1D03               	skipz
  4371     017F  2982               	goto	u1535
  4372     0180  3001               	movlw	1
  4373     0181  024C               	subwf	Val@num,w
  4374     0182                     u1535:
  4375     0182  1C03               	skipc
  4376     0183  2985               	goto	u1531
  4377     0184  2986               	goto	u1530
  4378     0185                     u1531:
  4379     0185  29A3               	goto	l2034
  4380     0186                     u1530:
  4381     0186                     l2030:
  4382     0186  1283               	bcf	3,5	;RP0=0, select bank0
  4383     0187  1303               	bcf	3,6	;RP1=0, select bank0
  4384     0188  084D               	movf	Val@num+1,w
  4385     0189  3A80               	xorlw	128
  4386     018A  00FF               	movwf	btemp+1
  4387     018B  3080               	movlw	128
  4388     018C  027F               	subwf	btemp+1,w
  4389     018D  1D03               	skipz
  4390     018E  2991               	goto	u1545
  4391     018F  3004               	movlw	4
  4392     0190  024C               	subwf	Val@num,w
  4393     0191                     u1545:
  4394     0191  1803               	skipnc
  4395     0192  2994               	goto	u1541
  4396     0193  2995               	goto	u1540
  4397     0194                     u1541:
  4398     0194  29A3               	goto	l2034
  4399     0195                     u1540:
  4400     0195                     l2032:
  4401                           
  4402                           ;Lokaverkefni.c: 203:     }
  4403     0195  1283               	bcf	3,5	;RP0=0, select bank0
  4404     0196  1303               	bcf	3,6	;RP1=0, select bank0
  4405     0197  084D               	movf	Val@num+1,w
  4406     0198  00B5               	movwf	_kubbur2+1
  4407     0199  084C               	movf	Val@num,w
  4408     019A  00B4               	movwf	_kubbur2
  4409                           
  4410                           ;Lokaverkefni.c: 204:     do{
  4411     019B  3027               	movlw	39
  4412     019C  00FB               	movwf	??_Val+1
  4413     019D  30F5               	movlw	245
  4414     019E  00FA               	movwf	??_Val
  4415     019F                     u2667:
  4416     019F  0BFA               	decfsz	??_Val,f
  4417     01A0  299F               	goto	u2667
  4418     01A1  0BFB               	decfsz	??_Val+1,f
  4419     01A2  299F               	goto	u2667
  4420     01A3                     l2034:
  4421                           
  4422                           ;Lokaverkefni.c: 194:     }
  4423     01A3  1283               	bcf	3,5	;RP0=0, select bank0
  4424     01A4  1303               	bcf	3,6	;RP1=0, select bank0
  4425     01A5  0A4C               	incf	Val@num,w
  4426     01A6  1D03               	skipz
  4427     01A7  29AD               	goto	u1550
  4428     01A8  0A4D               	incf	Val@num+1,w
  4429     01A9  1903               	btfsc	3,2
  4430     01AA  29AC               	goto	u1551
  4431     01AB  29AD               	goto	u1550
  4432     01AC                     u1551:
  4433     01AC  2925               	goto	l2018
  4434     01AD                     u1550:
  4435     01AD                     l2036:
  4436                           
  4437                           ;Lokaverkefni.c: 207:             num = KeyPad();
  4438     01AD  084C               	movf	Val@num,w
  4439     01AE  3E30               	addlw	48
  4440     01AF  120A  158A  22A7  120A  118A  	fcall	_lcd_chr_cp
  4441     01B4                     l2038:
  4442                           
  4443                           ;Lokaverkefni.c: 208:             lcd_out(1,1, "A til ad byrja");
  4444     01B4  3027               	movlw	39
  4445     01B5  00FB               	movwf	??_Val+1
  4446     01B6  30F5               	movlw	245
  4447     01B7  00FA               	movwf	??_Val
  4448     01B8                     u2677:
  4449     01B8  0BFA               	decfsz	??_Val,f
  4450     01B9  29B8               	goto	u2677
  4451     01BA  0BFB               	decfsz	??_Val+1,f
  4452     01BB  29B8               	goto	u2677
  4453     01BC                     l2040:
  4454                           
  4455                           ;Lokaverkefni.c: 209:             lcd_out(2,1, "0 til ad haetta");
  4456     01BC  30FF               	movlw	255
  4457     01BD  1283               	bcf	3,5	;RP0=0, select bank0
  4458     01BE  1303               	bcf	3,6	;RP1=0, select bank0
  4459     01BF  00CC               	movwf	Val@num
  4460     01C0  30FF               	movlw	255
  4461     01C1  00CD               	movwf	Val@num+1
  4462     01C2                     l2042:
  4463                           
  4464                           ;Lokaverkefni.c: 210:         }while(num == -1);
  4465     01C2  3004               	movlw	4
  4466     01C3  00FC               	movwf	??_Val+2
  4467     01C4  308E               	movlw	142
  4468     01C5  00FB               	movwf	??_Val+1
  4469     01C6  3012               	movlw	18
  4470     01C7  00FA               	movwf	??_Val
  4471     01C8                     u2687:
  4472     01C8  0BFA               	decfsz	??_Val,f
  4473     01C9  29C8               	goto	u2687
  4474     01CA  0BFB               	decfsz	??_Val+1,f
  4475     01CB  29C8               	goto	u2687
  4476     01CC  0BFC               	decfsz	??_Val+2,f
  4477     01CD  29C8               	goto	u2687
  4478     01CE  0000               	nop
  4479     01CF                     l2044:
  4480                           
  4481                           ;Lokaverkefni.c: 211:         if(num == 0){
  4482     01CF  01F4               	clrf	lcd_out@character
  4483     01D0  0AF4               	incf	lcd_out@character,f
  4484     01D1  3001               	movlw	low ((STR_33+1)| (0+32768))
  4485     01D2  00F5               	movwf	lcd_out@s
  4486     01D3  3090               	movlw	high ((STR_33+1)| (0+32768))
  4487     01D4  00F6               	movwf	lcd_out@s+1
  4488     01D5  3002               	movlw	2
  4489     01D6  120A  118A  2014  120A  118A  	fcall	_lcd_out
  4490                           
  4491                           ;Lokaverkefni.c: 212:             run = 0;
  4492     01DB  2A5A               	goto	l2062
  4493     01DC                     l2046:
  4494                           
  4495                           ;Lokaverkefni.c: 213:         }
  4496     01DC  01F4               	clrf	lcd_out@character
  4497     01DD  0AF4               	incf	lcd_out@character,f
  4498     01DE  3014               	movlw	low (STR_4| (0+32768))
  4499     01DF  00F5               	movwf	lcd_out@s
  4500     01E0  3091               	movlw	high (STR_4| (0+32768))
  4501     01E1  00F6               	movwf	lcd_out@s+1
  4502     01E2  3001               	movlw	1
  4503     01E3  120A  118A  2014  120A  118A  	fcall	_lcd_out
  4504                           
  4505                           ;Lokaverkefni.c: 214:         else if(num == 10){
  4506     01E8  01F4               	clrf	lcd_out@character
  4507     01E9  0AF4               	incf	lcd_out@character,f
  4508     01EA  3078               	movlw	low (STR_11| (0+32768))
  4509     01EB  00F5               	movwf	lcd_out@s
  4510     01EC  3091               	movlw	high (STR_11| (0+32768))
  4511     01ED  00F6               	movwf	lcd_out@s+1
  4512     01EE  3002               	movlw	2
  4513     01EF  120A  118A  2014  120A  118A  	fcall	_lcd_out
  4514     01F4                     l2048:
  4515                           
  4516                           ;Lokaverkefni.c: 215:             num = -1;
  4517     01F4  120A  158A  260A  120A  118A  	fcall	_KeyPad
  4518     01F9  0871               	movf	?_KeyPad+1,w
  4519     01FA  1283               	bcf	3,5	;RP0=0, select bank0
  4520     01FB  1303               	bcf	3,6	;RP1=0, select bank0
  4521     01FC  00CD               	movwf	Val@num+1
  4522     01FD  0870               	movf	?_KeyPad,w
  4523     01FE  00CC               	movwf	Val@num
  4524     01FF                     l2050:
  4525                           
  4526                           ;Lokaverkefni.c: 216:             if(RA7 == 1){
  4527     01FF  084D               	movf	Val@num+1,w
  4528     0200  3A80               	xorlw	128
  4529     0201  00FF               	movwf	btemp+1
  4530     0202  3080               	movlw	128
  4531     0203  027F               	subwf	btemp+1,w
  4532     0204  1D03               	skipz
  4533     0205  2A08               	goto	u1565
  4534     0206  3001               	movlw	1
  4535     0207  024C               	subwf	Val@num,w
  4536     0208                     u1565:
  4537     0208  1803               	skipnc
  4538     0209  2A0B               	goto	u1561
  4539     020A  2A0C               	goto	u1560
  4540     020B                     u1561:
  4541     020B  2A2E               	goto	l2056
  4542     020C                     u1560:
  4543     020C                     l2052:
  4544     020C  1283               	bcf	3,5	;RP0=0, select bank0
  4545     020D  1303               	bcf	3,6	;RP1=0, select bank0
  4546     020E  084D               	movf	Val@num+1,w
  4547     020F  3A80               	xorlw	128
  4548     0210  00FF               	movwf	btemp+1
  4549     0211  3080               	movlw	128
  4550     0212  027F               	subwf	btemp+1,w
  4551     0213  1D03               	skipz
  4552     0214  2A17               	goto	u1575
  4553     0215  3004               	movlw	4
  4554     0216  024C               	subwf	Val@num,w
  4555     0217                     u1575:
  4556     0217  1C03               	skipc
  4557     0218  2A1A               	goto	u1571
  4558     0219  2A1B               	goto	u1570
  4559     021A                     u1571:
  4560     021A  2A2E               	goto	l2056
  4561     021B                     u1570:
  4562     021B                     l2054:
  4563                           
  4564                           ;Lokaverkefni.c: 217:                 lcd_out(1,1, "                ");
  4565     021B  30FF               	movlw	255
  4566     021C  1283               	bcf	3,5	;RP0=0, select bank0
  4567     021D  1303               	bcf	3,6	;RP1=0, select bank0
  4568     021E  00CC               	movwf	Val@num
  4569     021F  30FF               	movlw	255
  4570     0220  00CD               	movwf	Val@num+1
  4571                           
  4572                           ;Lokaverkefni.c: 218:                 lcd_out(1,2, "                ");
  4573     0221  3006               	movlw	6
  4574     0222  00FC               	movwf	??_Val+2
  4575     0223  3013               	movlw	19
  4576     0224  00FB               	movwf	??_Val+1
  4577     0225  30AD               	movlw	173
  4578     0226  00FA               	movwf	??_Val
  4579     0227                     u2697:
  4580     0227  0BFA               	decfsz	??_Val,f
  4581     0228  2A27               	goto	u2697
  4582     0229  0BFB               	decfsz	??_Val+1,f
  4583     022A  2A27               	goto	u2697
  4584     022B  0BFC               	decfsz	??_Val+2,f
  4585     022C  2A27               	goto	u2697
  4586     022D  2A2E               	nop2
  4587     022E                     l2056:
  4588                           
  4589                           ;Lokaverkefni.c: 220:                     lcd_out(1,1, "Vantar kubb");
  4590     022E  1283               	bcf	3,5	;RP0=0, select bank0
  4591     022F  1303               	bcf	3,6	;RP1=0, select bank0
  4592     0230  084D               	movf	Val@num+1,w
  4593     0231  3A80               	xorlw	128
  4594     0232  00FF               	movwf	btemp+1
  4595     0233  3080               	movlw	128
  4596     0234  027F               	subwf	btemp+1,w
  4597     0235  1D03               	skipz
  4598     0236  2A39               	goto	u1585
  4599     0237  3001               	movlw	1
  4600     0238  024C               	subwf	Val@num,w
  4601     0239                     u1585:
  4602     0239  1C03               	skipc
  4603     023A  2A3C               	goto	u1581
  4604     023B  2A3D               	goto	u1580
  4605     023C                     u1581:
  4606     023C  2A5A               	goto	l2062
  4607     023D                     u1580:
  4608     023D                     l2058:
  4609     023D  1283               	bcf	3,5	;RP0=0, select bank0
  4610     023E  1303               	bcf	3,6	;RP1=0, select bank0
  4611     023F  084D               	movf	Val@num+1,w
  4612     0240  3A80               	xorlw	128
  4613     0241  00FF               	movwf	btemp+1
  4614     0242  3080               	movlw	128
  4615     0243  027F               	subwf	btemp+1,w
  4616     0244  1D03               	skipz
  4617     0245  2A48               	goto	u1595
  4618     0246  3004               	movlw	4
  4619     0247  024C               	subwf	Val@num,w
  4620     0248                     u1595:
  4621     0248  1803               	skipnc
  4622     0249  2A4B               	goto	u1591
  4623     024A  2A4C               	goto	u1590
  4624     024B                     u1591:
  4625     024B  2A5A               	goto	l2062
  4626     024C                     u1590:
  4627     024C                     l2060:
  4628                           
  4629                           ;Lokaverkefni.c: 221:                 }while(RA7 == 1);
  4630     024C  1283               	bcf	3,5	;RP0=0, select bank0
  4631     024D  1303               	bcf	3,6	;RP1=0, select bank0
  4632     024E  084D               	movf	Val@num+1,w
  4633     024F  00B3               	movwf	_kubbur3+1
  4634     0250  084C               	movf	Val@num,w
  4635     0251  00B2               	movwf	_kubbur3
  4636                           
  4637                           ;Lokaverkefni.c: 222:                 lcd_out(1,1, "                ");
  4638     0252  3027               	movlw	39
  4639     0253  00FB               	movwf	??_Val+1
  4640     0254  30F5               	movlw	245
  4641     0255  00FA               	movwf	??_Val
  4642     0256                     u2707:
  4643     0256  0BFA               	decfsz	??_Val,f
  4644     0257  2A56               	goto	u2707
  4645     0258  0BFB               	decfsz	??_Val+1,f
  4646     0259  2A56               	goto	u2707
  4647     025A                     l2062:
  4648                           
  4649                           ;Lokaverkefni.c: 212:             run = 0;
  4650     025A  1283               	bcf	3,5	;RP0=0, select bank0
  4651     025B  1303               	bcf	3,6	;RP1=0, select bank0
  4652     025C  0A4C               	incf	Val@num,w
  4653     025D  1D03               	skipz
  4654     025E  2A64               	goto	u1600
  4655     025F  0A4D               	incf	Val@num+1,w
  4656     0260  1903               	btfsc	3,2
  4657     0261  2A63               	goto	u1601
  4658     0262  2A64               	goto	u1600
  4659     0263                     u1601:
  4660     0263  29DC               	goto	l2046
  4661     0264                     u1600:
  4662     0264                     l2064:
  4663                           
  4664                           ;Lokaverkefni.c: 225:             RC0 = 1;
  4665     0264  084C               	movf	Val@num,w
  4666     0265  3E30               	addlw	48
  4667     0266  120A  158A  22A7  120A  118A  	fcall	_lcd_chr_cp
  4668     026B                     l2066:
  4669                           
  4670                           ;Lokaverkefni.c: 226:             RC1 = 1;
  4671     026B  3027               	movlw	39
  4672     026C  00FB               	movwf	??_Val+1
  4673     026D  30F5               	movlw	245
  4674     026E  00FA               	movwf	??_Val
  4675     026F                     u2717:
  4676     026F  0BFA               	decfsz	??_Val,f
  4677     0270  2A6F               	goto	u2717
  4678     0271  0BFB               	decfsz	??_Val+1,f
  4679     0272  2A6F               	goto	u2717
  4680     0273                     l2068:
  4681                           
  4682                           ;Lokaverkefni.c: 227:             lcd_out(1,1, "                ");
  4683     0273  30FF               	movlw	255
  4684     0274  1283               	bcf	3,5	;RP0=0, select bank0
  4685     0275  1303               	bcf	3,6	;RP1=0, select bank0
  4686     0276  00CC               	movwf	Val@num
  4687     0277  30FF               	movlw	255
  4688     0278  00CD               	movwf	Val@num+1
  4689     0279                     l2070:
  4690                           
  4691                           ;Lokaverkefni.c: 228:             lcd_out(2,1, "                ");
  4692     0279  3004               	movlw	4
  4693     027A  00FC               	movwf	??_Val+2
  4694     027B  308E               	movlw	142
  4695     027C  00FB               	movwf	??_Val+1
  4696     027D  3012               	movlw	18
  4697     027E  00FA               	movwf	??_Val
  4698     027F                     u2727:
  4699     027F  0BFA               	decfsz	??_Val,f
  4700     0280  2A7F               	goto	u2727
  4701     0281  0BFB               	decfsz	??_Val+1,f
  4702     0282  2A7F               	goto	u2727
  4703     0283  0BFC               	decfsz	??_Val+2,f
  4704     0284  2A7F               	goto	u2727
  4705     0285  0000               	nop
  4706     0286                     l2072:
  4707                           
  4708                           ;Lokaverkefni.c: 229:             lcd_out(1,1, "Keyrir...");
  4709     0286  01F4               	clrf	lcd_out@character
  4710     0287  0AF4               	incf	lcd_out@character,f
  4711     0288  3001               	movlw	low ((STR_33+1)| (0+32768))
  4712     0289  00F5               	movwf	lcd_out@s
  4713     028A  3090               	movlw	high ((STR_33+1)| (0+32768))
  4714     028B  00F6               	movwf	lcd_out@s+1
  4715     028C  3002               	movlw	2
  4716     028D  120A  118A  2014  120A  118A  	fcall	_lcd_out
  4717                           
  4718                           ;Lokaverkefni.c: 230:             pallur = 0;
  4719     0292  2B11               	goto	l2090
  4720     0293                     l2074:
  4721                           
  4722                           ;Lokaverkefni.c: 231:             _delay((unsigned long)((200)*(8000000/4000.0)));
  4723     0293  01F4               	clrf	lcd_out@character
  4724     0294  0AF4               	incf	lcd_out@character,f
  4725     0295  3014               	movlw	low (STR_4| (0+32768))
  4726     0296  00F5               	movwf	lcd_out@s
  4727     0297  3091               	movlw	high (STR_4| (0+32768))
  4728     0298  00F6               	movwf	lcd_out@s+1
  4729     0299  3001               	movlw	1
  4730     029A  120A  118A  2014  120A  118A  	fcall	_lcd_out
  4731                           
  4732                           ;Lokaverkefni.c: 232:             lcd_out(2,1, "Kassi:");
  4733     029F  01F4               	clrf	lcd_out@character
  4734     02A0  0AF4               	incf	lcd_out@character,f
  4735     02A1  3081               	movlw	low (STR_14| (0+32768))
  4736     02A2  00F5               	movwf	lcd_out@s
  4737     02A3  3091               	movlw	high (STR_14| (0+32768))
  4738     02A4  00F6               	movwf	lcd_out@s+1
  4739     02A5  3002               	movlw	2
  4740     02A6  120A  118A  2014  120A  118A  	fcall	_lcd_out
  4741     02AB                     l2076:
  4742                           
  4743                           ;Lokaverkefni.c: 233:             do{
  4744     02AB  120A  158A  260A  120A  118A  	fcall	_KeyPad
  4745     02B0  0871               	movf	?_KeyPad+1,w
  4746     02B1  1283               	bcf	3,5	;RP0=0, select bank0
  4747     02B2  1303               	bcf	3,6	;RP1=0, select bank0
  4748     02B3  00CD               	movwf	Val@num+1
  4749     02B4  0870               	movf	?_KeyPad,w
  4750     02B5  00CC               	movwf	Val@num
  4751     02B6                     l2078:
  4752                           
  4753                           ;Lokaverkefni.c: 234:                 if (scan == 1) {
  4754     02B6  084D               	movf	Val@num+1,w
  4755     02B7  3A80               	xorlw	128
  4756     02B8  00FF               	movwf	btemp+1
  4757     02B9  3080               	movlw	128
  4758     02BA  027F               	subwf	btemp+1,w
  4759     02BB  1D03               	skipz
  4760     02BC  2ABF               	goto	u1615
  4761     02BD  3001               	movlw	1
  4762     02BE  024C               	subwf	Val@num,w
  4763     02BF                     u1615:
  4764     02BF  1C03               	skipc
  4765     02C0  2AC2               	goto	u1611
  4766     02C1  2AC3               	goto	u1610
  4767     02C2                     u1611:
  4768     02C2  2AD2               	goto	l2082
  4769     02C3                     u1610:
  4770     02C3                     l2080:
  4771     02C3  1283               	bcf	3,5	;RP0=0, select bank0
  4772     02C4  1303               	bcf	3,6	;RP1=0, select bank0
  4773     02C5  084D               	movf	Val@num+1,w
  4774     02C6  3A80               	xorlw	128
  4775     02C7  00FF               	movwf	btemp+1
  4776     02C8  3080               	movlw	128
  4777     02C9  027F               	subwf	btemp+1,w
  4778     02CA  1D03               	skipz
  4779     02CB  2ACE               	goto	u1625
  4780     02CC  3004               	movlw	4
  4781     02CD  024C               	subwf	Val@num,w
  4782     02CE                     u1625:
  4783     02CE  1C03               	skipc
  4784     02CF  2AD1               	goto	u1621
  4785     02D0  2AD2               	goto	u1620
  4786     02D1                     u1621:
  4787     02D1  2AE5               	goto	l2084
  4788     02D2                     u1620:
  4789     02D2                     l2082:
  4790                           
  4791                           ;Lokaverkefni.c: 235:                     interrupt_ms++;
  4792     02D2  30FF               	movlw	255
  4793     02D3  1283               	bcf	3,5	;RP0=0, select bank0
  4794     02D4  1303               	bcf	3,6	;RP1=0, select bank0
  4795     02D5  00CC               	movwf	Val@num
  4796     02D6  30FF               	movlw	255
  4797     02D7  00CD               	movwf	Val@num+1
  4798                           
  4799                           ;Lokaverkefni.c: 236:                 }
  4800     02D8  3006               	movlw	6
  4801     02D9  00FC               	movwf	??_Val+2
  4802     02DA  3013               	movlw	19
  4803     02DB  00FB               	movwf	??_Val+1
  4804     02DC  30AD               	movlw	173
  4805     02DD  00FA               	movwf	??_Val
  4806     02DE                     u2737:
  4807     02DE  0BFA               	decfsz	??_Val,f
  4808     02DF  2ADE               	goto	u2737
  4809     02E0  0BFB               	decfsz	??_Val+1,f
  4810     02E1  2ADE               	goto	u2737
  4811     02E2  0BFC               	decfsz	??_Val+2,f
  4812     02E3  2ADE               	goto	u2737
  4813     02E4  2AE5               	nop2
  4814     02E5                     l2084:
  4815                           
  4816                           ;Lokaverkefni.c: 238:                     scan = 1;
  4817     02E5  1283               	bcf	3,5	;RP0=0, select bank0
  4818     02E6  1303               	bcf	3,6	;RP1=0, select bank0
  4819     02E7  084D               	movf	Val@num+1,w
  4820     02E8  3A80               	xorlw	128
  4821     02E9  00FF               	movwf	btemp+1
  4822     02EA  3080               	movlw	128
  4823     02EB  027F               	subwf	btemp+1,w
  4824     02EC  1D03               	skipz
  4825     02ED  2AF0               	goto	u1635
  4826     02EE  3001               	movlw	1
  4827     02EF  024C               	subwf	Val@num,w
  4828     02F0                     u1635:
  4829     02F0  1C03               	skipc
  4830     02F1  2AF3               	goto	u1631
  4831     02F2  2AF4               	goto	u1630
  4832     02F3                     u1631:
  4833     02F3  2B11               	goto	l2090
  4834     02F4                     u1630:
  4835     02F4                     l2086:
  4836     02F4  1283               	bcf	3,5	;RP0=0, select bank0
  4837     02F5  1303               	bcf	3,6	;RP1=0, select bank0
  4838     02F6  084D               	movf	Val@num+1,w
  4839     02F7  3A80               	xorlw	128
  4840     02F8  00FF               	movwf	btemp+1
  4841     02F9  3080               	movlw	128
  4842     02FA  027F               	subwf	btemp+1,w
  4843     02FB  1D03               	skipz
  4844     02FC  2AFF               	goto	u1645
  4845     02FD  3004               	movlw	4
  4846     02FE  024C               	subwf	Val@num,w
  4847     02FF                     u1645:
  4848     02FF  1803               	skipnc
  4849     0300  2B02               	goto	u1641
  4850     0301  2B03               	goto	u1640
  4851     0302                     u1641:
  4852     0302  2B11               	goto	l2090
  4853     0303                     u1640:
  4854     0303                     l2088:
  4855                           
  4856                           ;Lokaverkefni.c: 239:                     flicker1++;
  4857     0303  1283               	bcf	3,5	;RP0=0, select bank0
  4858     0304  1303               	bcf	3,6	;RP1=0, select bank0
  4859     0305  084D               	movf	Val@num+1,w
  4860     0306  00B1               	movwf	_kubbur4+1
  4861     0307  084C               	movf	Val@num,w
  4862     0308  00B0               	movwf	_kubbur4
  4863                           
  4864                           ;Lokaverkefni.c: 240:                     flickerA1++;
  4865     0309  3027               	movlw	39
  4866     030A  00FB               	movwf	??_Val+1
  4867     030B  30F5               	movlw	245
  4868     030C  00FA               	movwf	??_Val
  4869     030D                     u2747:
  4870     030D  0BFA               	decfsz	??_Val,f
  4871     030E  2B0D               	goto	u2747
  4872     030F  0BFB               	decfsz	??_Val+1,f
  4873     0310  2B0D               	goto	u2747
  4874     0311                     l2090:
  4875                           
  4876                           ;Lokaverkefni.c: 230:             pallur = 0;
  4877     0311  1283               	bcf	3,5	;RP0=0, select bank0
  4878     0312  1303               	bcf	3,6	;RP1=0, select bank0
  4879     0313  0A4C               	incf	Val@num,w
  4880     0314  1D03               	skipz
  4881     0315  2B1B               	goto	u1650
  4882     0316  0A4D               	incf	Val@num+1,w
  4883     0317  1903               	btfsc	3,2
  4884     0318  2B1A               	goto	u1651
  4885     0319  2B1B               	goto	u1650
  4886     031A                     u1651:
  4887     031A  2A93               	goto	l2074
  4888     031B                     u1650:
  4889     031B                     l2092:
  4890                           
  4891                           ;Lokaverkefni.c: 243:                         segull++;
  4892     031B  084C               	movf	Val@num,w
  4893     031C  3E30               	addlw	48
  4894     031D  120A  158A  22A7  120A  118A  	fcall	_lcd_chr_cp
  4895     0322                     l2094:
  4896                           
  4897                           ;Lokaverkefni.c: 244:                         flicker1 = 0;
  4898     0322  3027               	movlw	39
  4899     0323  00FB               	movwf	??_Val+1
  4900     0324  30F5               	movlw	245
  4901     0325  00FA               	movwf	??_Val
  4902     0326                     u2757:
  4903     0326  0BFA               	decfsz	??_Val,f
  4904     0327  2B26               	goto	u2757
  4905     0328  0BFB               	decfsz	??_Val+1,f
  4906     0329  2B26               	goto	u2757
  4907     032A                     l2096:
  4908     032A                     l2098:
  4909                           
  4910                           ;Lokaverkefni.c: 246:                     }
  4911     032A  3004               	movlw	4
  4912     032B  00FC               	movwf	??_Val+2
  4913     032C  308E               	movlw	142
  4914     032D  00FB               	movwf	??_Val+1
  4915     032E  3012               	movlw	18
  4916     032F  00FA               	movwf	??_Val
  4917     0330                     u2767:
  4918     0330  0BFA               	decfsz	??_Val,f
  4919     0331  2B30               	goto	u2767
  4920     0332  0BFB               	decfsz	??_Val+1,f
  4921     0333  2B30               	goto	u2767
  4922     0334  0BFC               	decfsz	??_Val+2,f
  4923     0335  2B30               	goto	u2767
  4924     0336  0000               	nop
  4925     0337                     l2100:
  4926                           
  4927                           ;Lokaverkefni.c: 247:                 }
  4928     0337  01F4               	clrf	lcd_out@character
  4929     0338  0AF4               	incf	lcd_out@character,f
  4930     0339  3001               	movlw	low ((STR_33+1)| (0+32768))
  4931     033A  00F5               	movwf	lcd_out@s
  4932     033B  3090               	movlw	high ((STR_33+1)| (0+32768))
  4933     033C  00F6               	movwf	lcd_out@s+1
  4934     033D  3001               	movlw	1
  4935     033E  120A  118A  2014  120A  118A  	fcall	_lcd_out
  4936     0343                     l2102:
  4937                           
  4938                           ;Lokaverkefni.c: 248:                 else if (RB6 == 0 && flickerA1 >= flickerspeed) {
  4939     0343  01F4               	clrf	lcd_out@character
  4940     0344  0AF4               	incf	lcd_out@character,f
  4941     0345  3001               	movlw	low ((STR_33+1)| (0+32768))
  4942     0346  00F5               	movwf	lcd_out@s
  4943     0347  3090               	movlw	high ((STR_33+1)| (0+32768))
  4944     0348  00F6               	movwf	lcd_out@s+1
  4945     0349  3002               	movlw	2
  4946     034A  120A  118A  2014  120A  118A  	fcall	_lcd_out
  4947     034F                     l2104:
  4948                           
  4949                           ;Lokaverkefni.c: 249:                     DebounceA = 0;
  4950     034F  3002               	movlw	2
  4951     0350  00FC               	movwf	??_Val+2
  4952     0351  3086               	movlw	134
  4953     0352  00FB               	movwf	??_Val+1
  4954     0353  3099               	movlw	153
  4955     0354  00FA               	movwf	??_Val
  4956     0355                     u2777:
  4957     0355  0BFA               	decfsz	??_Val,f
  4958     0356  2B55               	goto	u2777
  4959     0357  0BFB               	decfsz	??_Val+1,f
  4960     0358  2B55               	goto	u2777
  4961     0359  0BFC               	decfsz	??_Val+2,f
  4962     035A  2B55               	goto	u2777
  4963     035B                     l242:
  4964     035B  0008               	return
  4965     035C                     __end_of_Val:
  4966                           
  4967                           	psect	text8
  4968     0014                     __ptext8:	
  4969 ;; *************** function _lcd_out *****************
  4970 ;; Defined at:
  4971 ;;		line 69 in file "./LCD.c"
  4972 ;; Parameters:    Size  Location     Type
  4973 ;;  line            1    wreg     unsigned char 
  4974 ;;  character       1    4[COMMON] unsigned char 
  4975 ;;  s               2    5[COMMON] PTR const unsigned char 
  4976 ;;		 -> STR_64(17), STR_63(17), STR_62(17), STR_61(17), 
  4977 ;;		 -> STR_60(17), STR_59(17), STR_58(18), STR_57(18), 
  4978 ;;		 -> STR_56(18), STR_55(17), STR_54(17), STR_53(17), 
  4979 ;;		 -> STR_52(17), STR_51(17), STR_50(17), STR_49(17), 
  4980 ;;		 -> STR_48(17), STR_47(17), STR_46(17), STR_45(17), 
  4981 ;;		 -> STR_44(17), STR_43(17), STR_42(17), STR_41(17), 
  4982 ;;		 -> STR_40(18), STR_39(18), STR_38(7), STR_37(13), 
  4983 ;;		 -> STR_36(17), STR_35(17), STR_34(18), STR_33(18), 
  4984 ;;		 -> STR_32(8), STR_31(17), STR_30(7), STR_29(10), 
  4985 ;;		 -> STR_28(17), STR_27(17), STR_26(17), STR_25(12), 
  4986 ;;		 -> STR_24(17), STR_23(17), STR_22(16), STR_21(15), 
  4987 ;;		 -> STR_20(17), STR_19(12), STR_18(17), STR_17(17), 
  4988 ;;		 -> STR_16(17), STR_15(17), STR_14(9), STR_13(16), 
  4989 ;;		 -> STR_12(17), STR_11(9), STR_10(16), STR_9(17), 
  4990 ;;		 -> STR_8(9), STR_7(16), STR_6(17), STR_5(9), 
  4991 ;;		 -> STR_4(16), STR_3(17), STR_2(17), STR_1(9), 
  4992 ;; Auto vars:     Size  Location     Type
  4993 ;;  line            1    8[COMMON] unsigned char 
  4994 ;; Return value:  Size  Location     Type
  4995 ;;                  1    wreg      void 
  4996 ;; Registers used:
  4997 ;;		wreg, fsr0l, fsr0h, status,2, status,0, btemp+1, pclath, cstack
  4998 ;; Tracked objects:
  4999 ;;		On entry : 0/0
  5000 ;;		On exit  : 0/0
  5001 ;;		Unchanged: 0/0
  5002 ;; Data sizes:     COMMON   BANK0   BANK1   BANK3   BANK2
  5003 ;;      Params:         3       0       0       0       0
  5004 ;;      Locals:         1       0       0       0       0
  5005 ;;      Temps:          1       0       0       0       0
  5006 ;;      Totals:         5       0       0       0       0
  5007 ;;Total ram usage:        5 bytes
  5008 ;; Hardware stack levels used: 1
  5009 ;; Hardware stack levels required when called: 2
  5010 ;; This function calls:
  5011 ;;		_lcd_goto
  5012 ;;		_lcd_write
  5013 ;; This function is called by:
  5014 ;;		_reset
  5015 ;;		_Val
  5016 ;;		_A
  5017 ;;		_B
  5018 ;;		_main
  5019 ;; This function uses a non-reentrant model
  5020 ;;
  5021                           
  5022     0014                     _lcd_out:	
  5023                           ;psect for function _lcd_out
  5024                           
  5025                           
  5026                           ;incstack = 0
  5027                           ; Regs used in _lcd_out: [wreg-fsr0h+status,2+status,0+btemp+1+pclath+cstack]
  5028                           ;lcd_out@line stored from wreg
  5029     0014  00F8               	movwf	lcd_out@line
  5030     0015                     l1824:
  5031                           
  5032                           ;./LCD.c: 69: void lcd_out( unsigned char line, unsigned char character, const char * s)
      +                          ;./LCD.c: 70: {;./LCD.c: 71:  lcd_goto( ( 0x40 * ( line - 1 ) ) + ( character - 1 ) );
  5033     0015  0878               	movf	lcd_out@line,w
  5034     0016  00F7               	movwf	??_lcd_out
  5035     0017  3006               	movlw	6
  5036     0018                     u1215:
  5037     0018  1003               	clrc
  5038     0019  0DF7               	rlf	??_lcd_out,f
  5039     001A  3EFF               	addlw	-1
  5040     001B  1D03               	skipz
  5041     001C  2818               	goto	u1215
  5042     001D  0874               	movf	lcd_out@character,w
  5043     001E  0777               	addwf	??_lcd_out,w
  5044     001F  3EBF               	addlw	191
  5045     0020  120A  118A  2008  120A  118A  	fcall	_lcd_goto
  5046     0025                     l1826:
  5047                           
  5048                           ;./LCD.c: 73:  RB4 = 1;
  5049     0025  1283               	bcf	3,5	;RP0=0, select bank0
  5050     0026  1303               	bcf	3,6	;RP1=0, select bank0
  5051     0027  1606               	bsf	6,4	;volatile
  5052                           
  5053                           ;./LCD.c: 74:  while(*s)
  5054     0028  283D               	goto	l1832
  5055     0029                     l1828:
  5056                           
  5057                           ;./LCD.c: 75:   lcd_write(*s++);
  5058     0029  0876               	movf	lcd_out@s+1,w
  5059     002A  00FF               	movwf	btemp+1
  5060     002B  0875               	movf	lcd_out@s,w
  5061     002C  0084               	movwf	4
  5062     002D  120A  158A  2000  120A  118A  	fcall	stringtab
  5063     0032  120A  158A  22E0  120A  118A  	fcall	_lcd_write
  5064     0037                     l1830:
  5065     0037  3001               	movlw	1
  5066     0038  07F5               	addwf	lcd_out@s,f
  5067     0039  1803               	skipnc
  5068     003A  0AF6               	incf	lcd_out@s+1,f
  5069     003B  3000               	movlw	0
  5070     003C  07F6               	addwf	lcd_out@s+1,f
  5071     003D                     l1832:
  5072                           
  5073                           ;./LCD.c: 74:  while(*s)
  5074     003D  0876               	movf	lcd_out@s+1,w
  5075     003E  1283               	bcf	3,5	;RP0=0, select bank0
  5076     003F  1303               	bcf	3,6	;RP1=0, select bank0
  5077     0040  00FF               	movwf	btemp+1
  5078     0041  0875               	movf	lcd_out@s,w
  5079     0042  0084               	movwf	4
  5080     0043  120A  158A  2000  120A  118A  	fcall	stringtab
  5081     0048  3A00               	xorlw	0
  5082     0049  1D03               	skipz
  5083     004A  284C               	goto	u1221
  5084     004B  284D               	goto	u1220
  5085     004C                     u1221:
  5086     004C  2829               	goto	l1828
  5087     004D                     u1220:
  5088     004D                     l100:
  5089     004D  0008               	return
  5090     004E                     __end_of_lcd_out:
  5091                           
  5092                           	psect	text9
  5093     0008                     __ptext9:	
  5094 ;; *************** function _lcd_goto *****************
  5095 ;; Defined at:
  5096 ;;		line 98 in file "./LCD.c"
  5097 ;; Parameters:    Size  Location     Type
  5098 ;;  pos             1    wreg     unsigned char 
  5099 ;; Auto vars:     Size  Location     Type
  5100 ;;  pos             1    3[COMMON] unsigned char 
  5101 ;; Return value:  Size  Location     Type
  5102 ;;                  1    wreg      void 
  5103 ;; Registers used:
  5104 ;;		wreg, status,2, status,0, pclath, cstack
  5105 ;; Tracked objects:
  5106 ;;		On entry : 0/0
  5107 ;;		On exit  : 0/0
  5108 ;;		Unchanged: 0/0
  5109 ;; Data sizes:     COMMON   BANK0   BANK1   BANK3   BANK2
  5110 ;;      Params:         0       0       0       0       0
  5111 ;;      Locals:         1       0       0       0       0
  5112 ;;      Temps:          0       0       0       0       0
  5113 ;;      Totals:         1       0       0       0       0
  5114 ;;Total ram usage:        1 bytes
  5115 ;; Hardware stack levels used: 1
  5116 ;; Hardware stack levels required when called: 1
  5117 ;; This function calls:
  5118 ;;		_lcd_write
  5119 ;; This function is called by:
  5120 ;;		_lcd_out
  5121 ;;		_lcd_chr
  5122 ;; This function uses a non-reentrant model
  5123 ;;
  5124                           
  5125     0008                     _lcd_goto:	
  5126                           ;psect for function _lcd_goto
  5127                           
  5128                           
  5129                           ;incstack = 0
  5130                           ; Regs used in _lcd_goto: [wreg+status,2+status,0+pclath+cstack]
  5131                           ;lcd_goto@pos stored from wreg
  5132     0008  00F3               	movwf	lcd_goto@pos
  5133     0009                     l1820:
  5134                           
  5135                           ;./LCD.c: 98: void lcd_goto(unsigned char pos);./LCD.c: 99: {;./LCD.c: 100:  RB4 = 0;
  5136     0009  1283               	bcf	3,5	;RP0=0, select bank0
  5137     000A  1303               	bcf	3,6	;RP1=0, select bank0
  5138     000B  1206               	bcf	6,4	;volatile
  5139     000C                     l1822:
  5140                           
  5141                           ;./LCD.c: 101:  lcd_write(0x80+pos);
  5142     000C  0873               	movf	lcd_goto@pos,w
  5143     000D  3E80               	addlw	128
  5144     000E  120A  158A  22E0  120A  118A  	fcall	_lcd_write
  5145     0013                     l112:
  5146     0013  0008               	return
  5147     0014                     __end_of_lcd_goto:
  5148                           
  5149                           	psect	text10
  5150     0AA7                     __ptext10:	
  5151 ;; *************** function _lcd_chr_cp *****************
  5152 ;; Defined at:
  5153 ;;		line 79 in file "./LCD.c"
  5154 ;; Parameters:    Size  Location     Type
  5155 ;;  c               1    wreg     unsigned char 
  5156 ;; Auto vars:     Size  Location     Type
  5157 ;;  c               1    3[COMMON] unsigned char 
  5158 ;; Return value:  Size  Location     Type
  5159 ;;                  1    wreg      void 
  5160 ;; Registers used:
  5161 ;;		wreg, status,2, status,0, pclath, cstack
  5162 ;; Tracked objects:
  5163 ;;		On entry : 0/0
  5164 ;;		On exit  : 0/0
  5165 ;;		Unchanged: 0/0
  5166 ;; Data sizes:     COMMON   BANK0   BANK1   BANK3   BANK2
  5167 ;;      Params:         0       0       0       0       0
  5168 ;;      Locals:         1       0       0       0       0
  5169 ;;      Temps:          0       0       0       0       0
  5170 ;;      Totals:         1       0       0       0       0
  5171 ;;Total ram usage:        1 bytes
  5172 ;; Hardware stack levels used: 1
  5173 ;; Hardware stack levels required when called: 1
  5174 ;; This function calls:
  5175 ;;		_lcd_write
  5176 ;; This function is called by:
  5177 ;;		_Val
  5178 ;; This function uses a non-reentrant model
  5179 ;;
  5180                           
  5181     0AA7                     _lcd_chr_cp:	
  5182                           ;psect for function _lcd_chr_cp
  5183                           
  5184                           
  5185                           ;incstack = 0
  5186                           ; Regs used in _lcd_chr_cp: [wreg+status,2+status,0+pclath+cstack]
  5187                           ;lcd_chr_cp@c stored from wreg
  5188     0AA7  00F3               	movwf	lcd_chr_cp@c
  5189     0AA8                     l1834:
  5190                           
  5191                           ;./LCD.c: 79: void lcd_chr_cp(char c);./LCD.c: 80: {;./LCD.c: 81:  RB4 = 1;
  5192     0AA8  1283               	bcf	3,5	;RP0=0, select bank0
  5193     0AA9  1303               	bcf	3,6	;RP1=0, select bank0
  5194     0AAA  1606               	bsf	6,4	;volatile
  5195     0AAB                     l1836:
  5196                           
  5197                           ;./LCD.c: 82:  lcd_write( c );
  5198     0AAB  0873               	movf	lcd_chr_cp@c,w
  5199     0AAC  120A  158A  22E0  120A  158A  	fcall	_lcd_write
  5200     0AB1                     l103:
  5201     0AB1  0008               	return
  5202     0AB2                     __end_of_lcd_chr_cp:
  5203                           
  5204                           	psect	text11
  5205     0AE0                     __ptext11:	
  5206 ;; *************** function _lcd_write *****************
  5207 ;; Defined at:
  5208 ;;		line 46 in file "./LCD.c"
  5209 ;; Parameters:    Size  Location     Type
  5210 ;;  c               1    wreg     unsigned char 
  5211 ;; Auto vars:     Size  Location     Type
  5212 ;;  c               1    2[COMMON] unsigned char 
  5213 ;; Return value:  Size  Location     Type
  5214 ;;                  1    wreg      void 
  5215 ;; Registers used:
  5216 ;;		wreg, status,2, status,0
  5217 ;; Tracked objects:
  5218 ;;		On entry : 0/0
  5219 ;;		On exit  : 0/0
  5220 ;;		Unchanged: 0/0
  5221 ;; Data sizes:     COMMON   BANK0   BANK1   BANK3   BANK2
  5222 ;;      Params:         0       0       0       0       0
  5223 ;;      Locals:         1       0       0       0       0
  5224 ;;      Temps:          2       0       0       0       0
  5225 ;;      Totals:         3       0       0       0       0
  5226 ;;Total ram usage:        3 bytes
  5227 ;; Hardware stack levels used: 1
  5228 ;; This function calls:
  5229 ;;		Nothing
  5230 ;; This function is called by:
  5231 ;;		_lcd_clear
  5232 ;;		_lcd_out
  5233 ;;		_lcd_chr_cp
  5234 ;;		_lcd_chr
  5235 ;;		_lcd_goto
  5236 ;;		_lcd_init
  5237 ;;		_lcd_cmd
  5238 ;; This function uses a non-reentrant model
  5239 ;;
  5240                           
  5241     0AE0                     _lcd_write:	
  5242                           ;psect for function _lcd_write
  5243                           
  5244                           
  5245                           ;incstack = 0
  5246                           ; Regs used in _lcd_write: [wreg+status,2+status,0]
  5247                           ;lcd_write@c stored from wreg
  5248     0AE0  00F2               	movwf	lcd_write@c
  5249     0AE1                     l1804:
  5250                           
  5251                           ;./LCD.c: 46: void lcd_write(unsigned char c);./LCD.c: 47: {;./LCD.c: 48:  _delay((unsig
      +                          ned long)((40)*(8000000/4000000.0)));
  5252     0AE1  301A               	movlw	26
  5253     0AE2  00F0               	movwf	??_lcd_write
  5254     0AE3                     u2787:
  5255     0AE3  0BF0               	decfsz	??_lcd_write,f
  5256     0AE4  2AE3               	goto	u2787
  5257     0AE5  0000               	nop
  5258     0AE6                     l1806:
  5259                           
  5260                           ;./LCD.c: 49:  PORTB = (PORTB & 0xF0) | ( ( c >> 4 ) & 0x0F);
  5261     0AE6  0872               	movf	lcd_write@c,w
  5262     0AE7  00F0               	movwf	??_lcd_write
  5263     0AE8  3004               	movlw	4
  5264     0AE9                     u1205:
  5265     0AE9  1003               	clrc
  5266     0AEA  0CF0               	rrf	??_lcd_write,f
  5267     0AEB  3EFF               	addlw	-1
  5268     0AEC  1D03               	skipz
  5269     0AED  2AE9               	goto	u1205
  5270     0AEE  300F               	movlw	15
  5271     0AEF  0570               	andwf	??_lcd_write,w
  5272     0AF0  00F1               	movwf	??_lcd_write+1
  5273     0AF1  1283               	bcf	3,5	;RP0=0, select bank0
  5274     0AF2  1303               	bcf	3,6	;RP1=0, select bank0
  5275     0AF3  0806               	movf	6,w	;volatile
  5276     0AF4  39F0               	andlw	240
  5277     0AF5  0471               	iorwf	??_lcd_write+1,w
  5278     0AF6  0086               	movwf	6	;volatile
  5279     0AF7                     l1808:
  5280                           
  5281                           ;./LCD.c: 51:  ((RB5 = 1),(RB5=0));
  5282     0AF7  1686               	bsf	6,5	;volatile
  5283     0AF8                     l1810:
  5284     0AF8  1286               	bcf	6,5	;volatile
  5285     0AF9                     l1812:
  5286                           
  5287                           ;./LCD.c: 52:  _delay((unsigned long)((200)*(8000000/4000000.0)));
  5288     0AF9  3085               	movlw	133
  5289     0AFA  00F0               	movwf	??_lcd_write
  5290     0AFB                     u2797:
  5291     0AFB  0BF0               	decfsz	??_lcd_write,f
  5292     0AFC  2AFB               	goto	u2797
  5293                           
  5294                           ;./LCD.c: 54:  PORTB = (PORTB & 0xF0) | ( c & 0x0F );
  5295     0AFD  300F               	movlw	15
  5296     0AFE  0572               	andwf	lcd_write@c,w
  5297     0AFF  00F0               	movwf	??_lcd_write
  5298     0B00  1283               	bcf	3,5	;RP0=0, select bank0
  5299     0B01  1303               	bcf	3,6	;RP1=0, select bank0
  5300     0B02  0806               	movf	6,w	;volatile
  5301     0B03  39F0               	andlw	240
  5302     0B04  0470               	iorwf	??_lcd_write,w
  5303     0B05  0086               	movwf	6	;volatile
  5304     0B06                     l1814:
  5305                           
  5306                           ;./LCD.c: 56:  ((RB5 = 1),(RB5=0));
  5307     0B06  1686               	bsf	6,5	;volatile
  5308     0B07                     l1816:
  5309     0B07  1286               	bcf	6,5	;volatile
  5310     0B08                     l1818:
  5311                           
  5312                           ;./LCD.c: 57:  _delay((unsigned long)((200)*(8000000/4000000.0)));
  5313     0B08  3085               	movlw	133
  5314     0B09  00F0               	movwf	??_lcd_write
  5315     0B0A                     u2807:
  5316     0B0A  0BF0               	decfsz	??_lcd_write,f
  5317     0B0B  2B0A               	goto	u2807
  5318     0B0C                     l91:
  5319     0B0C  0008               	return
  5320     0B0D                     __end_of_lcd_write:
  5321                           
  5322                           	psect	text12
  5323     0E0A                     __ptext12:	
  5324 ;; *************** function _KeyPad *****************
  5325 ;; Defined at:
  5326 ;;		line 111 in file "Lokaverkefni.c"
  5327 ;; Parameters:    Size  Location     Type
  5328 ;;		None
  5329 ;; Auto vars:     Size  Location     Type
  5330 ;;  input           2    8[COMMON] int 
  5331 ;;  tala            2    6[COMMON] int 
  5332 ;;  press           2    4[COMMON] int 
  5333 ;; Return value:  Size  Location     Type
  5334 ;;                  2    0[COMMON] int 
  5335 ;; Registers used:
  5336 ;;		wreg, fsr0l, fsr0h, status,2, status,0
  5337 ;; Tracked objects:
  5338 ;;		On entry : 0/0
  5339 ;;		On exit  : 0/0
  5340 ;;		Unchanged: 0/0
  5341 ;; Data sizes:     COMMON   BANK0   BANK1   BANK3   BANK2
  5342 ;;      Params:         2       0       0       0       0
  5343 ;;      Locals:         6       0       0       0       0
  5344 ;;      Temps:          2       0       0       0       0
  5345 ;;      Totals:        10       0       0       0       0
  5346 ;;Total ram usage:       10 bytes
  5347 ;; Hardware stack levels used: 1
  5348 ;; This function calls:
  5349 ;;		Nothing
  5350 ;; This function is called by:
  5351 ;;		_Val
  5352 ;;		_A
  5353 ;;		_B
  5354 ;;		_main
  5355 ;; This function uses a non-reentrant model
  5356 ;;
  5357                           
  5358     0E0A                     _KeyPad:	
  5359                           ;psect for function _KeyPad
  5360                           
  5361     0E0A                     l1838:	
  5362                           ;incstack = 0
  5363                           ; Regs used in _KeyPad: [wreg-fsr0h+status,2+status,0]
  5364                           
  5365                           
  5366                           ;Lokaverkefni.c: 113:         num = KeyPad();
  5367     0E0A  1283               	bcf	3,5	;RP0=0, select bank0
  5368     0E0B  1303               	bcf	3,6	;RP1=0, select bank0
  5369     0E0C  0188               	clrf	8	;volatile
  5370     0E0D                     l1840:
  5371                           
  5372                           ;Lokaverkefni.c: 114:         if(num <= 0 && num >= 4){
  5373     0E0D  30FF               	movlw	255
  5374     0E0E  00F6               	movwf	KeyPad@tala
  5375     0E0F  30FF               	movlw	255
  5376     0E10  00F7               	movwf	KeyPad@tala+1
  5377     0E11                     l1842:
  5378                           
  5379                           ;Lokaverkefni.c: 115:             num = -1;;Lokaverkefni.c: 116:             _delay((uns
      +                          igned long)((500)*(8000000/4000.0)));
  5380     0E11  01F4               	clrf	KeyPad@press
  5381     0E12  01F5               	clrf	KeyPad@press+1
  5382                           
  5383                           ;Lokaverkefni.c: 117:         }
  5384     0E13  3001               	movlw	1
  5385     0E14  0088               	movwf	8	;volatile
  5386                           
  5387                           ;Lokaverkefni.c: 118:         if(num >= 1 && num <= 3){
  5388     0E15  300D               	movlw	13
  5389     0E16  00F3               	movwf	??_KeyPad+1
  5390     0E17  30FB               	movlw	251
  5391     0E18  00F2               	movwf	??_KeyPad
  5392     0E19                     u2817:
  5393     0E19  0BF2               	decfsz	??_KeyPad,f
  5394     0E1A  2E19               	goto	u2817
  5395     0E1B  0BF3               	decfsz	??_KeyPad+1,f
  5396     0E1C  2E19               	goto	u2817
  5397     0E1D  2E1E               	nop2
  5398                           
  5399                           ;Lokaverkefni.c: 119:             kubbur1 = num;
  5400     0E1E  1283               	bcf	3,5	;RP0=0, select bank0
  5401     0E1F  1303               	bcf	3,6	;RP1=0, select bank0
  5402     0E20  0808               	movf	8,w	;volatile
  5403     0E21  00F2               	movwf	??_KeyPad
  5404     0E22  01F3               	clrf	??_KeyPad+1
  5405     0E23  0872               	movf	??_KeyPad,w
  5406     0E24  00F8               	movwf	KeyPad@input
  5407     0E25  0873               	movf	??_KeyPad+1,w
  5408     0E26  00F9               	movwf	KeyPad@input+1
  5409     0E27                     l1844:
  5410                           
  5411                           ;Lokaverkefni.c: 120:             _delay((unsigned long)((15)*(8000000/4000.0)));
  5412     0E27  3011               	movlw	17
  5413     0E28  0678               	xorwf	KeyPad@input,w
  5414     0E29  0479               	iorwf	KeyPad@input+1,w
  5415     0E2A  1903               	btfsc	3,2
  5416     0E2B  2E2D               	goto	u1231
  5417     0E2C  2E2E               	goto	u1230
  5418     0E2D                     u1231:
  5419     0E2D  2E70               	goto	l1862
  5420     0E2E                     u1230:
  5421     0E2E                     l1846:
  5422     0E2E  3021               	movlw	33
  5423     0E2F  0678               	xorwf	KeyPad@input,w
  5424     0E30  0479               	iorwf	KeyPad@input+1,w
  5425     0E31  1903               	btfsc	3,2
  5426     0E32  2E34               	goto	u1241
  5427     0E33  2E35               	goto	u1240
  5428     0E34                     u1241:
  5429     0E34  2E70               	goto	l1862
  5430     0E35                     u1240:
  5431     0E35                     l1848:
  5432     0E35  3041               	movlw	65
  5433     0E36  0678               	xorwf	KeyPad@input,w
  5434     0E37  0479               	iorwf	KeyPad@input+1,w
  5435     0E38  1903               	btfsc	3,2
  5436     0E39  2E3B               	goto	u1251
  5437     0E3A  2E3C               	goto	u1250
  5438     0E3B                     u1251:
  5439     0E3B  2E70               	goto	l1862
  5440     0E3C                     u1250:
  5441     0E3C                     l1850:
  5442     0E3C  3081               	movlw	129
  5443     0E3D  0678               	xorwf	KeyPad@input,w
  5444     0E3E  0479               	iorwf	KeyPad@input+1,w
  5445     0E3F  1D03               	btfss	3,2
  5446     0E40  2E42               	goto	u1261
  5447     0E41  2E43               	goto	u1260
  5448     0E42                     u1261:
  5449     0E42  2E83               	goto	l1864
  5450     0E43                     u1260:
  5451     0E43  2E70               	goto	l1862
  5452     0E44                     l1852:
  5453     0E44  3001               	movlw	1
  5454     0E45  00F6               	movwf	KeyPad@tala
  5455     0E46  3000               	movlw	0
  5456     0E47  00F7               	movwf	KeyPad@tala+1
  5457     0E48  3001               	movlw	1
  5458     0E49  07F4               	addwf	KeyPad@press,f
  5459     0E4A  1803               	skipnc
  5460     0E4B  0AF5               	incf	KeyPad@press+1,f
  5461     0E4C  3000               	movlw	0
  5462     0E4D  07F5               	addwf	KeyPad@press+1,f
  5463     0E4E  2E83               	goto	l1864
  5464     0E4F                     l1854:
  5465     0E4F  3004               	movlw	4
  5466     0E50  00F6               	movwf	KeyPad@tala
  5467     0E51  3000               	movlw	0
  5468     0E52  00F7               	movwf	KeyPad@tala+1
  5469     0E53  3001               	movlw	1
  5470     0E54  07F4               	addwf	KeyPad@press,f
  5471     0E55  1803               	skipnc
  5472     0E56  0AF5               	incf	KeyPad@press+1,f
  5473     0E57  3000               	movlw	0
  5474     0E58  07F5               	addwf	KeyPad@press+1,f
  5475     0E59  2E83               	goto	l1864
  5476     0E5A                     l1856:
  5477     0E5A  3007               	movlw	7
  5478     0E5B  00F6               	movwf	KeyPad@tala
  5479     0E5C  3000               	movlw	0
  5480     0E5D  00F7               	movwf	KeyPad@tala+1
  5481     0E5E  3001               	movlw	1
  5482     0E5F  07F4               	addwf	KeyPad@press,f
  5483     0E60  1803               	skipnc
  5484     0E61  0AF5               	incf	KeyPad@press+1,f
  5485     0E62  3000               	movlw	0
  5486     0E63  07F5               	addwf	KeyPad@press+1,f
  5487     0E64  2E83               	goto	l1864
  5488     0E65                     l1858:
  5489     0E65  300E               	movlw	14
  5490     0E66  00F6               	movwf	KeyPad@tala
  5491     0E67  3000               	movlw	0
  5492     0E68  00F7               	movwf	KeyPad@tala+1
  5493     0E69  3001               	movlw	1
  5494     0E6A  07F4               	addwf	KeyPad@press,f
  5495     0E6B  1803               	skipnc
  5496     0E6C  0AF5               	incf	KeyPad@press+1,f
  5497     0E6D  3000               	movlw	0
  5498     0E6E  07F5               	addwf	KeyPad@press+1,f
  5499     0E6F  2E83               	goto	l1864
  5500     0E70                     l1862:
  5501                           
  5502                           ; Switch on 2 bytes has been partitioned into a top level switch of size 1, and 1 sub-sw
      +                          itches
  5503                           ; Switch size 1, requested type "simple"
  5504                           ; Number of cases is 1, Range of values is 0 to 0
  5505                           ; switch strategies available:
  5506                           ; Name         Instructions Cycles
  5507                           ; simple_byte            4     3 (average)
  5508                           ; direct_byte           11     8 (fixed)
  5509                           ; jumptable            260     6 (fixed)
  5510                           ;	Chosen strategy is simple_byte
  5511     0E70  0879               	movf	KeyPad@input+1,w
  5512     0E71  3A00               	xorlw	0	; case 0
  5513     0E72  1903               	skipnz
  5514     0E73  2E75               	goto	l2664
  5515     0E74  2E83               	goto	l1864
  5516     0E75                     l2664:
  5517                           
  5518                           ; Switch size 1, requested type "simple"
  5519                           ; Number of cases is 4, Range of values is 17 to 129
  5520                           ; switch strategies available:
  5521                           ; Name         Instructions Cycles
  5522                           ; simple_byte           13     7 (average)
  5523                           ; jumptable            263     9 (fixed)
  5524                           ;	Chosen strategy is simple_byte
  5525     0E75  0878               	movf	KeyPad@input,w
  5526     0E76  3A11               	xorlw	17	; case 17
  5527     0E77  1903               	skipnz
  5528     0E78  2E44               	goto	l1852
  5529     0E79  3A30               	xorlw	48	; case 33
  5530     0E7A  1903               	skipnz
  5531     0E7B  2E4F               	goto	l1854
  5532     0E7C  3A60               	xorlw	96	; case 65
  5533     0E7D  1903               	skipnz
  5534     0E7E  2E5A               	goto	l1856
  5535     0E7F  3AC0               	xorlw	192	; case 129
  5536     0E80  1903               	skipnz
  5537     0E81  2E65               	goto	l1858
  5538     0E82  2E83               	goto	l1864
  5539     0E83                     l1864:
  5540                           
  5541                           ;Lokaverkefni.c: 128:     while(num == -1){
  5542     0E83  300D               	movlw	13
  5543     0E84  00F3               	movwf	??_KeyPad+1
  5544     0E85  30FB               	movlw	251
  5545     0E86  00F2               	movwf	??_KeyPad
  5546     0E87                     u2827:
  5547     0E87  0BF2               	decfsz	??_KeyPad,f
  5548     0E88  2E87               	goto	u2827
  5549     0E89  0BF3               	decfsz	??_KeyPad+1,f
  5550     0E8A  2E87               	goto	u2827
  5551     0E8B  2E8C               	nop2
  5552                           
  5553                           ;Lokaverkefni.c: 129:         lcd_out(1,1, "Velja 1,2 eda 3");
  5554     0E8C  3002               	movlw	2
  5555     0E8D  1283               	bcf	3,5	;RP0=0, select bank0
  5556     0E8E  1303               	bcf	3,6	;RP1=0, select bank0
  5557     0E8F  0088               	movwf	8	;volatile
  5558                           
  5559                           ;Lokaverkefni.c: 130:         lcd_out(2,1, "Kassi 2:");
  5560     0E90  300D               	movlw	13
  5561     0E91  00F3               	movwf	??_KeyPad+1
  5562     0E92  30FB               	movlw	251
  5563     0E93  00F2               	movwf	??_KeyPad
  5564     0E94                     u2837:
  5565     0E94  0BF2               	decfsz	??_KeyPad,f
  5566     0E95  2E94               	goto	u2837
  5567     0E96  0BF3               	decfsz	??_KeyPad+1,f
  5568     0E97  2E94               	goto	u2837
  5569     0E98  2E99               	nop2
  5570                           
  5571                           ;Lokaverkefni.c: 131:         num = KeyPad();
  5572     0E99  1283               	bcf	3,5	;RP0=0, select bank0
  5573     0E9A  1303               	bcf	3,6	;RP1=0, select bank0
  5574     0E9B  0808               	movf	8,w	;volatile
  5575     0E9C  00F2               	movwf	??_KeyPad
  5576     0E9D  01F3               	clrf	??_KeyPad+1
  5577     0E9E  0872               	movf	??_KeyPad,w
  5578     0E9F  00F8               	movwf	KeyPad@input
  5579     0EA0  0873               	movf	??_KeyPad+1,w
  5580     0EA1  00F9               	movwf	KeyPad@input+1
  5581     0EA2                     l1866:
  5582                           
  5583                           ;Lokaverkefni.c: 132:         if(num <= 0 && num >= 4){
  5584     0EA2  3012               	movlw	18
  5585     0EA3  0678               	xorwf	KeyPad@input,w
  5586     0EA4  0479               	iorwf	KeyPad@input+1,w
  5587     0EA5  1903               	btfsc	3,2
  5588     0EA6  2EA8               	goto	u1271
  5589     0EA7  2EA9               	goto	u1270
  5590     0EA8                     u1271:
  5591     0EA8  2EE9               	goto	l1886
  5592     0EA9                     u1270:
  5593     0EA9                     l1868:
  5594     0EA9  3022               	movlw	34
  5595     0EAA  0678               	xorwf	KeyPad@input,w
  5596     0EAB  0479               	iorwf	KeyPad@input+1,w
  5597     0EAC  1903               	btfsc	3,2
  5598     0EAD  2EAF               	goto	u1281
  5599     0EAE  2EB0               	goto	u1280
  5600     0EAF                     u1281:
  5601     0EAF  2EE9               	goto	l1886
  5602     0EB0                     u1280:
  5603     0EB0                     l1870:
  5604     0EB0  3042               	movlw	66
  5605     0EB1  0678               	xorwf	KeyPad@input,w
  5606     0EB2  0479               	iorwf	KeyPad@input+1,w
  5607     0EB3  1903               	btfsc	3,2
  5608     0EB4  2EB6               	goto	u1291
  5609     0EB5  2EB7               	goto	u1290
  5610     0EB6                     u1291:
  5611     0EB6  2EE9               	goto	l1886
  5612     0EB7                     u1290:
  5613     0EB7                     l1872:
  5614     0EB7  3082               	movlw	130
  5615     0EB8  0678               	xorwf	KeyPad@input,w
  5616     0EB9  0479               	iorwf	KeyPad@input+1,w
  5617     0EBA  1D03               	btfss	3,2
  5618     0EBB  2EBD               	goto	u1301
  5619     0EBC  2EBE               	goto	u1300
  5620     0EBD                     u1301:
  5621     0EBD  2EFC               	goto	l1888
  5622     0EBE                     u1300:
  5623     0EBE  2EE9               	goto	l1886
  5624     0EBF                     l1874:
  5625     0EBF  3002               	movlw	2
  5626     0EC0  00F6               	movwf	KeyPad@tala
  5627     0EC1  3000               	movlw	0
  5628     0EC2  00F7               	movwf	KeyPad@tala+1
  5629     0EC3  3001               	movlw	1
  5630     0EC4  07F4               	addwf	KeyPad@press,f
  5631     0EC5  1803               	skipnc
  5632     0EC6  0AF5               	incf	KeyPad@press+1,f
  5633     0EC7  3000               	movlw	0
  5634     0EC8  07F5               	addwf	KeyPad@press+1,f
  5635     0EC9  2EFC               	goto	l1888
  5636     0ECA                     l1876:
  5637     0ECA  3005               	movlw	5
  5638     0ECB  00F6               	movwf	KeyPad@tala
  5639     0ECC  3000               	movlw	0
  5640     0ECD  00F7               	movwf	KeyPad@tala+1
  5641     0ECE  3001               	movlw	1
  5642     0ECF  07F4               	addwf	KeyPad@press,f
  5643     0ED0  1803               	skipnc
  5644     0ED1  0AF5               	incf	KeyPad@press+1,f
  5645     0ED2  3000               	movlw	0
  5646     0ED3  07F5               	addwf	KeyPad@press+1,f
  5647     0ED4  2EFC               	goto	l1888
  5648     0ED5                     l1878:
  5649     0ED5  3008               	movlw	8
  5650     0ED6  00F6               	movwf	KeyPad@tala
  5651     0ED7  3000               	movlw	0
  5652     0ED8  00F7               	movwf	KeyPad@tala+1
  5653     0ED9  3001               	movlw	1
  5654     0EDA  07F4               	addwf	KeyPad@press,f
  5655     0EDB  1803               	skipnc
  5656     0EDC  0AF5               	incf	KeyPad@press+1,f
  5657     0EDD  3000               	movlw	0
  5658     0EDE  07F5               	addwf	KeyPad@press+1,f
  5659     0EDF  2EFC               	goto	l1888
  5660     0EE0                     l1880:
  5661     0EE0  01F6               	clrf	KeyPad@tala
  5662     0EE1  01F7               	clrf	KeyPad@tala+1
  5663     0EE2                     l1882:
  5664     0EE2  3001               	movlw	1
  5665     0EE3  07F4               	addwf	KeyPad@press,f
  5666     0EE4  1803               	skipnc
  5667     0EE5  0AF5               	incf	KeyPad@press+1,f
  5668     0EE6  3000               	movlw	0
  5669     0EE7  07F5               	addwf	KeyPad@press+1,f
  5670     0EE8  2EFC               	goto	l1888
  5671     0EE9                     l1886:
  5672                           
  5673                           ; Switch on 2 bytes has been partitioned into a top level switch of size 1, and 1 sub-sw
      +                          itches
  5674                           ; Switch size 1, requested type "simple"
  5675                           ; Number of cases is 1, Range of values is 0 to 0
  5676                           ; switch strategies available:
  5677                           ; Name         Instructions Cycles
  5678                           ; simple_byte            4     3 (average)
  5679                           ; direct_byte           11     8 (fixed)
  5680                           ; jumptable            260     6 (fixed)
  5681                           ;	Chosen strategy is simple_byte
  5682     0EE9  0879               	movf	KeyPad@input+1,w
  5683     0EEA  3A00               	xorlw	0	; case 0
  5684     0EEB  1903               	skipnz
  5685     0EEC  2EEE               	goto	l2666
  5686     0EED  2EFC               	goto	l1888
  5687     0EEE                     l2666:
  5688                           
  5689                           ; Switch size 1, requested type "simple"
  5690                           ; Number of cases is 4, Range of values is 18 to 130
  5691                           ; switch strategies available:
  5692                           ; Name         Instructions Cycles
  5693                           ; simple_byte           13     7 (average)
  5694                           ; jumptable            263     9 (fixed)
  5695                           ;	Chosen strategy is simple_byte
  5696     0EEE  0878               	movf	KeyPad@input,w
  5697     0EEF  3A12               	xorlw	18	; case 18
  5698     0EF0  1903               	skipnz
  5699     0EF1  2EBF               	goto	l1874
  5700     0EF2  3A30               	xorlw	48	; case 34
  5701     0EF3  1903               	skipnz
  5702     0EF4  2ECA               	goto	l1876
  5703     0EF5  3A60               	xorlw	96	; case 66
  5704     0EF6  1903               	skipnz
  5705     0EF7  2ED5               	goto	l1878
  5706     0EF8  3AC0               	xorlw	192	; case 130
  5707     0EF9  1903               	skipnz
  5708     0EFA  2EE0               	goto	l1880
  5709     0EFB  2EFC               	goto	l1888
  5710     0EFC                     l1888:
  5711                           
  5712                           ;Lokaverkefni.c: 140:     }
  5713     0EFC  300D               	movlw	13
  5714     0EFD  00F3               	movwf	??_KeyPad+1
  5715     0EFE  30FB               	movlw	251
  5716     0EFF  00F2               	movwf	??_KeyPad
  5717     0F00                     u2847:
  5718     0F00  0BF2               	decfsz	??_KeyPad,f
  5719     0F01  2F00               	goto	u2847
  5720     0F02  0BF3               	decfsz	??_KeyPad+1,f
  5721     0F03  2F00               	goto	u2847
  5722     0F04  2F05               	nop2
  5723                           
  5724                           ;Lokaverkefni.c: 141:     lcd_chr_cp(num+48);
  5725     0F05  3004               	movlw	4
  5726     0F06  1283               	bcf	3,5	;RP0=0, select bank0
  5727     0F07  1303               	bcf	3,6	;RP1=0, select bank0
  5728     0F08  0088               	movwf	8	;volatile
  5729                           
  5730                           ;Lokaverkefni.c: 142:     _delay((unsigned long)((15)*(8000000/4000.0)));
  5731     0F09  300D               	movlw	13
  5732     0F0A  00F3               	movwf	??_KeyPad+1
  5733     0F0B  30FB               	movlw	251
  5734     0F0C  00F2               	movwf	??_KeyPad
  5735     0F0D                     u2857:
  5736     0F0D  0BF2               	decfsz	??_KeyPad,f
  5737     0F0E  2F0D               	goto	u2857
  5738     0F0F  0BF3               	decfsz	??_KeyPad+1,f
  5739     0F10  2F0D               	goto	u2857
  5740     0F11  2F12               	nop2
  5741                           
  5742                           ;Lokaverkefni.c: 143:     num = -1;
  5743     0F12  1283               	bcf	3,5	;RP0=0, select bank0
  5744     0F13  1303               	bcf	3,6	;RP1=0, select bank0
  5745     0F14  0808               	movf	8,w	;volatile
  5746     0F15  00F2               	movwf	??_KeyPad
  5747     0F16  01F3               	clrf	??_KeyPad+1
  5748     0F17  0872               	movf	??_KeyPad,w
  5749     0F18  00F8               	movwf	KeyPad@input
  5750     0F19  0873               	movf	??_KeyPad+1,w
  5751     0F1A  00F9               	movwf	KeyPad@input+1
  5752     0F1B                     l1890:
  5753                           
  5754                           ;Lokaverkefni.c: 144:     _delay((unsigned long)((350)*(8000000/4000.0)));
  5755     0F1B  3014               	movlw	20
  5756     0F1C  0678               	xorwf	KeyPad@input,w
  5757     0F1D  0479               	iorwf	KeyPad@input+1,w
  5758     0F1E  1903               	btfsc	3,2
  5759     0F1F  2F21               	goto	u1311
  5760     0F20  2F22               	goto	u1310
  5761     0F21                     u1311:
  5762     0F21  2F64               	goto	l1908
  5763     0F22                     u1310:
  5764     0F22                     l1892:
  5765     0F22  3024               	movlw	36
  5766     0F23  0678               	xorwf	KeyPad@input,w
  5767     0F24  0479               	iorwf	KeyPad@input+1,w
  5768     0F25  1903               	btfsc	3,2
  5769     0F26  2F28               	goto	u1321
  5770     0F27  2F29               	goto	u1320
  5771     0F28                     u1321:
  5772     0F28  2F64               	goto	l1908
  5773     0F29                     u1320:
  5774     0F29                     l1894:
  5775     0F29  3044               	movlw	68
  5776     0F2A  0678               	xorwf	KeyPad@input,w
  5777     0F2B  0479               	iorwf	KeyPad@input+1,w
  5778     0F2C  1903               	btfsc	3,2
  5779     0F2D  2F2F               	goto	u1331
  5780     0F2E  2F30               	goto	u1330
  5781     0F2F                     u1331:
  5782     0F2F  2F64               	goto	l1908
  5783     0F30                     u1330:
  5784     0F30                     l1896:
  5785     0F30  3084               	movlw	132
  5786     0F31  0678               	xorwf	KeyPad@input,w
  5787     0F32  0479               	iorwf	KeyPad@input+1,w
  5788     0F33  1D03               	btfss	3,2
  5789     0F34  2F36               	goto	u1341
  5790     0F35  2F37               	goto	u1340
  5791     0F36                     u1341:
  5792     0F36  2F77               	goto	l1910
  5793     0F37                     u1340:
  5794     0F37  2F64               	goto	l1908
  5795     0F38                     l1898:
  5796     0F38  3003               	movlw	3
  5797     0F39  00F6               	movwf	KeyPad@tala
  5798     0F3A  3000               	movlw	0
  5799     0F3B  00F7               	movwf	KeyPad@tala+1
  5800     0F3C  3001               	movlw	1
  5801     0F3D  07F4               	addwf	KeyPad@press,f
  5802     0F3E  1803               	skipnc
  5803     0F3F  0AF5               	incf	KeyPad@press+1,f
  5804     0F40  3000               	movlw	0
  5805     0F41  07F5               	addwf	KeyPad@press+1,f
  5806     0F42  2F77               	goto	l1910
  5807     0F43                     l1900:
  5808     0F43  3006               	movlw	6
  5809     0F44  00F6               	movwf	KeyPad@tala
  5810     0F45  3000               	movlw	0
  5811     0F46  00F7               	movwf	KeyPad@tala+1
  5812     0F47  3001               	movlw	1
  5813     0F48  07F4               	addwf	KeyPad@press,f
  5814     0F49  1803               	skipnc
  5815     0F4A  0AF5               	incf	KeyPad@press+1,f
  5816     0F4B  3000               	movlw	0
  5817     0F4C  07F5               	addwf	KeyPad@press+1,f
  5818     0F4D  2F77               	goto	l1910
  5819     0F4E                     l1902:
  5820     0F4E  3009               	movlw	9
  5821     0F4F  00F6               	movwf	KeyPad@tala
  5822     0F50  3000               	movlw	0
  5823     0F51  00F7               	movwf	KeyPad@tala+1
  5824     0F52  3001               	movlw	1
  5825     0F53  07F4               	addwf	KeyPad@press,f
  5826     0F54  1803               	skipnc
  5827     0F55  0AF5               	incf	KeyPad@press+1,f
  5828     0F56  3000               	movlw	0
  5829     0F57  07F5               	addwf	KeyPad@press+1,f
  5830     0F58  2F77               	goto	l1910
  5831     0F59                     l1904:
  5832     0F59  300F               	movlw	15
  5833     0F5A  00F6               	movwf	KeyPad@tala
  5834     0F5B  3000               	movlw	0
  5835     0F5C  00F7               	movwf	KeyPad@tala+1
  5836     0F5D  3001               	movlw	1
  5837     0F5E  07F4               	addwf	KeyPad@press,f
  5838     0F5F  1803               	skipnc
  5839     0F60  0AF5               	incf	KeyPad@press+1,f
  5840     0F61  3000               	movlw	0
  5841     0F62  07F5               	addwf	KeyPad@press+1,f
  5842     0F63  2F77               	goto	l1910
  5843     0F64                     l1908:
  5844                           
  5845                           ; Switch on 2 bytes has been partitioned into a top level switch of size 1, and 1 sub-sw
      +                          itches
  5846                           ; Switch size 1, requested type "simple"
  5847                           ; Number of cases is 1, Range of values is 0 to 0
  5848                           ; switch strategies available:
  5849                           ; Name         Instructions Cycles
  5850                           ; simple_byte            4     3 (average)
  5851                           ; direct_byte           11     8 (fixed)
  5852                           ; jumptable            260     6 (fixed)
  5853                           ;	Chosen strategy is simple_byte
  5854     0F64  0879               	movf	KeyPad@input+1,w
  5855     0F65  3A00               	xorlw	0	; case 0
  5856     0F66  1903               	skipnz
  5857     0F67  2F69               	goto	l2668
  5858     0F68  2F77               	goto	l1910
  5859     0F69                     l2668:
  5860                           
  5861                           ; Switch size 1, requested type "simple"
  5862                           ; Number of cases is 4, Range of values is 20 to 132
  5863                           ; switch strategies available:
  5864                           ; Name         Instructions Cycles
  5865                           ; simple_byte           13     7 (average)
  5866                           ; jumptable            263     9 (fixed)
  5867                           ;	Chosen strategy is simple_byte
  5868     0F69  0878               	movf	KeyPad@input,w
  5869     0F6A  3A14               	xorlw	20	; case 20
  5870     0F6B  1903               	skipnz
  5871     0F6C  2F38               	goto	l1898
  5872     0F6D  3A30               	xorlw	48	; case 36
  5873     0F6E  1903               	skipnz
  5874     0F6F  2F43               	goto	l1900
  5875     0F70  3A60               	xorlw	96	; case 68
  5876     0F71  1903               	skipnz
  5877     0F72  2F4E               	goto	l1902
  5878     0F73  3AC0               	xorlw	192	; case 132
  5879     0F74  1903               	skipnz
  5880     0F75  2F59               	goto	l1904
  5881     0F76  2F77               	goto	l1910
  5882     0F77                     l1910:
  5883                           
  5884                           ;Lokaverkefni.c: 152:             _delay((unsigned long)((500)*(8000000/4000.0)));
  5885     0F77  300D               	movlw	13
  5886     0F78  00F3               	movwf	??_KeyPad+1
  5887     0F79  30FB               	movlw	251
  5888     0F7A  00F2               	movwf	??_KeyPad
  5889     0F7B                     u2867:
  5890     0F7B  0BF2               	decfsz	??_KeyPad,f
  5891     0F7C  2F7B               	goto	u2867
  5892     0F7D  0BF3               	decfsz	??_KeyPad+1,f
  5893     0F7E  2F7B               	goto	u2867
  5894     0F7F  2F80               	nop2
  5895                           
  5896                           ;Lokaverkefni.c: 153:         }
  5897     0F80  3008               	movlw	8
  5898     0F81  1283               	bcf	3,5	;RP0=0, select bank0
  5899     0F82  1303               	bcf	3,6	;RP1=0, select bank0
  5900     0F83  0088               	movwf	8	;volatile
  5901                           
  5902                           ;Lokaverkefni.c: 154:         if(num >= 1 && num <= 3){
  5903     0F84  300D               	movlw	13
  5904     0F85  00F3               	movwf	??_KeyPad+1
  5905     0F86  30FB               	movlw	251
  5906     0F87  00F2               	movwf	??_KeyPad
  5907     0F88                     u2877:
  5908     0F88  0BF2               	decfsz	??_KeyPad,f
  5909     0F89  2F88               	goto	u2877
  5910     0F8A  0BF3               	decfsz	??_KeyPad+1,f
  5911     0F8B  2F88               	goto	u2877
  5912     0F8C  2F8D               	nop2
  5913                           
  5914                           ;Lokaverkefni.c: 155:             kubbur3 = num;
  5915     0F8D  1283               	bcf	3,5	;RP0=0, select bank0
  5916     0F8E  1303               	bcf	3,6	;RP1=0, select bank0
  5917     0F8F  0808               	movf	8,w	;volatile
  5918     0F90  00F2               	movwf	??_KeyPad
  5919     0F91  01F3               	clrf	??_KeyPad+1
  5920     0F92  0872               	movf	??_KeyPad,w
  5921     0F93  00F8               	movwf	KeyPad@input
  5922     0F94  0873               	movf	??_KeyPad+1,w
  5923     0F95  00F9               	movwf	KeyPad@input+1
  5924     0F96                     l1912:
  5925                           
  5926                           ;Lokaverkefni.c: 156:             _delay((unsigned long)((15)*(8000000/4000.0)));
  5927     0F96  3018               	movlw	24
  5928     0F97  0678               	xorwf	KeyPad@input,w
  5929     0F98  0479               	iorwf	KeyPad@input+1,w
  5930     0F99  1903               	btfsc	3,2
  5931     0F9A  2F9C               	goto	u1351
  5932     0F9B  2F9D               	goto	u1350
  5933     0F9C                     u1351:
  5934     0F9C  2FDF               	goto	l1930
  5935     0F9D                     u1350:
  5936     0F9D                     l1914:
  5937     0F9D  3028               	movlw	40
  5938     0F9E  0678               	xorwf	KeyPad@input,w
  5939     0F9F  0479               	iorwf	KeyPad@input+1,w
  5940     0FA0  1903               	btfsc	3,2
  5941     0FA1  2FA3               	goto	u1361
  5942     0FA2  2FA4               	goto	u1360
  5943     0FA3                     u1361:
  5944     0FA3  2FDF               	goto	l1930
  5945     0FA4                     u1360:
  5946     0FA4                     l1916:
  5947     0FA4  3048               	movlw	72
  5948     0FA5  0678               	xorwf	KeyPad@input,w
  5949     0FA6  0479               	iorwf	KeyPad@input+1,w
  5950     0FA7  1903               	btfsc	3,2
  5951     0FA8  2FAA               	goto	u1371
  5952     0FA9  2FAB               	goto	u1370
  5953     0FAA                     u1371:
  5954     0FAA  2FDF               	goto	l1930
  5955     0FAB                     u1370:
  5956     0FAB                     l1918:
  5957     0FAB  3088               	movlw	136
  5958     0FAC  0678               	xorwf	KeyPad@input,w
  5959     0FAD  0479               	iorwf	KeyPad@input+1,w
  5960     0FAE  1D03               	btfss	3,2
  5961     0FAF  2FB1               	goto	u1381
  5962     0FB0  2FB2               	goto	u1380
  5963     0FB1                     u1381:
  5964     0FB1  2FF2               	goto	l1932
  5965     0FB2                     u1380:
  5966     0FB2  2FDF               	goto	l1930
  5967     0FB3                     l1920:
  5968     0FB3  300A               	movlw	10
  5969     0FB4  00F6               	movwf	KeyPad@tala
  5970     0FB5  3000               	movlw	0
  5971     0FB6  00F7               	movwf	KeyPad@tala+1
  5972     0FB7  3001               	movlw	1
  5973     0FB8  07F4               	addwf	KeyPad@press,f
  5974     0FB9  1803               	skipnc
  5975     0FBA  0AF5               	incf	KeyPad@press+1,f
  5976     0FBB  3000               	movlw	0
  5977     0FBC  07F5               	addwf	KeyPad@press+1,f
  5978     0FBD  2FF2               	goto	l1932
  5979     0FBE                     l1922:
  5980     0FBE  300B               	movlw	11
  5981     0FBF  00F6               	movwf	KeyPad@tala
  5982     0FC0  3000               	movlw	0
  5983     0FC1  00F7               	movwf	KeyPad@tala+1
  5984     0FC2  3001               	movlw	1
  5985     0FC3  07F4               	addwf	KeyPad@press,f
  5986     0FC4  1803               	skipnc
  5987     0FC5  0AF5               	incf	KeyPad@press+1,f
  5988     0FC6  3000               	movlw	0
  5989     0FC7  07F5               	addwf	KeyPad@press+1,f
  5990     0FC8  2FF2               	goto	l1932
  5991     0FC9                     l1924:
  5992     0FC9  300C               	movlw	12
  5993     0FCA  00F6               	movwf	KeyPad@tala
  5994     0FCB  3000               	movlw	0
  5995     0FCC  00F7               	movwf	KeyPad@tala+1
  5996     0FCD  3001               	movlw	1
  5997     0FCE  07F4               	addwf	KeyPad@press,f
  5998     0FCF  1803               	skipnc
  5999     0FD0  0AF5               	incf	KeyPad@press+1,f
  6000     0FD1  3000               	movlw	0
  6001     0FD2  07F5               	addwf	KeyPad@press+1,f
  6002     0FD3  2FF2               	goto	l1932
  6003     0FD4                     l1926:
  6004     0FD4  300D               	movlw	13
  6005     0FD5  00F6               	movwf	KeyPad@tala
  6006     0FD6  3000               	movlw	0
  6007     0FD7  00F7               	movwf	KeyPad@tala+1
  6008     0FD8  3001               	movlw	1
  6009     0FD9  07F4               	addwf	KeyPad@press,f
  6010     0FDA  1803               	skipnc
  6011     0FDB  0AF5               	incf	KeyPad@press+1,f
  6012     0FDC  3000               	movlw	0
  6013     0FDD  07F5               	addwf	KeyPad@press+1,f
  6014     0FDE  2FF2               	goto	l1932
  6015     0FDF                     l1930:
  6016                           
  6017                           ; Switch on 2 bytes has been partitioned into a top level switch of size 1, and 1 sub-sw
      +                          itches
  6018                           ; Switch size 1, requested type "simple"
  6019                           ; Number of cases is 1, Range of values is 0 to 0
  6020                           ; switch strategies available:
  6021                           ; Name         Instructions Cycles
  6022                           ; simple_byte            4     3 (average)
  6023                           ; direct_byte           11     8 (fixed)
  6024                           ; jumptable            260     6 (fixed)
  6025                           ;	Chosen strategy is simple_byte
  6026     0FDF  0879               	movf	KeyPad@input+1,w
  6027     0FE0  3A00               	xorlw	0	; case 0
  6028     0FE1  1903               	skipnz
  6029     0FE2  2FE4               	goto	l2670
  6030     0FE3  2FF2               	goto	l1932
  6031     0FE4                     l2670:
  6032                           
  6033                           ; Switch size 1, requested type "simple"
  6034                           ; Number of cases is 4, Range of values is 24 to 136
  6035                           ; switch strategies available:
  6036                           ; Name         Instructions Cycles
  6037                           ; simple_byte           13     7 (average)
  6038                           ; jumptable            263     9 (fixed)
  6039                           ;	Chosen strategy is simple_byte
  6040     0FE4  0878               	movf	KeyPad@input,w
  6041     0FE5  3A18               	xorlw	24	; case 24
  6042     0FE6  1903               	skipnz
  6043     0FE7  2FB3               	goto	l1920
  6044     0FE8  3A30               	xorlw	48	; case 40
  6045     0FE9  1903               	skipnz
  6046     0FEA  2FBE               	goto	l1922
  6047     0FEB  3A60               	xorlw	96	; case 72
  6048     0FEC  1903               	skipnz
  6049     0FED  2FC9               	goto	l1924
  6050     0FEE  3AC0               	xorlw	192	; case 136
  6051     0FEF  1903               	skipnz
  6052     0FF0  2FD4               	goto	l1926
  6053     0FF1  2FF2               	goto	l1932
  6054     0FF2                     l1932:
  6055                           
  6056                           ;Lokaverkefni.c: 164:     while(num == -1){
  6057     0FF2  300D               	movlw	13
  6058     0FF3  00F3               	movwf	??_KeyPad+1
  6059     0FF4  30FB               	movlw	251
  6060     0FF5  00F2               	movwf	??_KeyPad
  6061     0FF6                     u2887:
  6062     0FF6  0BF2               	decfsz	??_KeyPad,f
  6063     0FF7  2FF6               	goto	u2887
  6064     0FF8  0BF3               	decfsz	??_KeyPad+1,f
  6065     0FF9  2FF6               	goto	u2887
  6066     0FFA  2FFB               	nop2
  6067     0FFB                     l1938:
  6068                           
  6069                           ;Lokaverkefni.c: 166:         lcd_out(2,1, "Kassi 4:");
  6070     0FFB  0877               	movf	KeyPad@tala+1,w
  6071     0FFC  00F1               	movwf	?_KeyPad+1
  6072     0FFD  0876               	movf	KeyPad@tala,w
  6073     0FFE  00F0               	movwf	?_KeyPad
  6074     0FFF                     l217:
  6075     0FFF  0008               	return
  6076     1000                     __end_of_KeyPad:
  6077     007E                     btemp	set	126	;btemp
  6078     007E                     wtemp0	set	126
  6079                           
  6080                           	psect	config
  6081                           
  6082                           ;Config register CONFIG1 @ 0x2007
  6083                           ;	Oscillator Selection bits
  6084                           ;	FOSC = INTRC_NOCLKOUT, INTOSCIO oscillator: I/O function on RA6/OSC2/CLKOUT pin, I/O f
      +                          unction on RA7/OSC1/CLKIN
  6085                           ;	Watchdog Timer Enable bit
  6086                           ;	WDTE = OFF, WDT disabled and can be enabled by SWDTEN bit of the WDTCON register
  6087                           ;	Power-up Timer Enable bit
  6088                           ;	PWRTE = ON, PWRT enabled
  6089                           ;	RE3/MCLR pin function select bit
  6090                           ;	MCLRE = ON, RE3/MCLR pin function is MCLR
  6091                           ;	Code Protection bit
  6092                           ;	CP = OFF, Program memory code protection is disabled
  6093                           ;	Data Code Protection bit
  6094                           ;	CPD = 0x1, unprogrammed default
  6095                           ;	Brown Out Reset Selection bits
  6096                           ;	BOREN = ON, BOR enabled
  6097                           ;	Internal External Switchover bit
  6098                           ;	IESO = ON, Internal/External Switchover mode is enabled
  6099                           ;	Fail-Safe Clock Monitor Enabled bit
  6100                           ;	FCMEN = ON, Fail-Safe Clock Monitor is enabled
  6101                           ;	Low Voltage Programming Enable bit
  6102                           ;	LVP = OFF, RB3 pin has digital I/O, HV on MCLR must be used for programming
  6103                           ;	In-Circuit Debugger Mode bit
  6104                           ;	DEBUG = OFF, In-Circuit Debugger disabled, RB6/ICSPCLK and RB7/ICSPDAT are general pur
      +                          pose I/O pins
  6105     2007                     	org	8199
  6106     2007  2FE4               	dw	12260
  6107                           
  6108                           ;Config register CONFIG2 @ 0x2008
  6109                           ;	Brown-out Reset Selection bit
  6110                           ;	BOR4V = BOR40V, Brown-out Reset set to 4.0V
  6111                           ;	Flash Program Memory Self Write Enable bits
  6112                           ;	WRT = 0x3, unprogrammed default
  6113     2008                     	org	8200
  6114     2008  3FFF               	dw	16383

Data Sizes:
    Strings     425
    Constant    0
    Data        4
    BSS         44
    Persistent  0
    Stack       0

Auto Spaces:
    Space          Size  Autos    Used
    COMMON           14     13      13
    BANK0            80     12      60
    BANK1            80      0       0
    BANK3            96      0       0
    BANK2            96      0       0

Pointer List with Targets:

    lcd_out@s	PTR const unsigned char  size(2) Largest target is 18
		 -> STR_64(CODE[17]), STR_63(CODE[17]), STR_62(CODE[17]), STR_61(CODE[17]), 
		 -> STR_60(CODE[17]), STR_59(CODE[17]), STR_58(CODE[18]), STR_57(CODE[18]), 
		 -> STR_56(CODE[18]), STR_55(CODE[17]), STR_54(CODE[17]), STR_53(CODE[17]), 
		 -> STR_52(CODE[17]), STR_51(CODE[17]), STR_50(CODE[17]), STR_49(CODE[17]), 
		 -> STR_48(CODE[17]), STR_47(CODE[17]), STR_46(CODE[17]), STR_45(CODE[17]), 
		 -> STR_44(CODE[17]), STR_43(CODE[17]), STR_42(CODE[17]), STR_41(CODE[17]), 
		 -> STR_40(CODE[18]), STR_39(CODE[18]), STR_38(CODE[7]), STR_37(CODE[13]), 
		 -> STR_36(CODE[17]), STR_35(CODE[17]), STR_34(CODE[18]), STR_33(CODE[18]), 
		 -> STR_32(CODE[8]), STR_31(CODE[17]), STR_30(CODE[7]), STR_29(CODE[10]), 
		 -> STR_28(CODE[17]), STR_27(CODE[17]), STR_26(CODE[17]), STR_25(CODE[12]), 
		 -> STR_24(CODE[17]), STR_23(CODE[17]), STR_22(CODE[16]), STR_21(CODE[15]), 
		 -> STR_20(CODE[17]), STR_19(CODE[12]), STR_18(CODE[17]), STR_17(CODE[17]), 
		 -> STR_16(CODE[17]), STR_15(CODE[17]), STR_14(CODE[9]), STR_13(CODE[16]), 
		 -> STR_12(CODE[17]), STR_11(CODE[9]), STR_10(CODE[16]), STR_9(CODE[17]), 
		 -> STR_8(CODE[9]), STR_7(CODE[16]), STR_6(CODE[17]), STR_5(CODE[9]), 
		 -> STR_4(CODE[16]), STR_3(CODE[17]), STR_2(CODE[17]), STR_1(CODE[9]), 


Critical Paths under _main in COMMON

    _main->_B
    _lcd_init->_lcd_clear
    _lcd_clear->_lcd_write
    _B->_KeyPad
    _reset->_lcd_out
    _A->_Val
    _lcd_chr->_lcd_goto
    _Val->_KeyPad
    _lcd_out->_lcd_goto
    _lcd_goto->_lcd_write
    _lcd_chr_cp->_lcd_write

Critical Paths under _main in BANK0

    _main->_A
    _A->_Val

Critical Paths under _main in BANK1

    None.

Critical Paths under _main in BANK3

    None.

Critical Paths under _main in BANK2

    None.

Call Graph Tables:

 ---------------------------------------------------------------------------------
 (Depth) Function   	        Calls       Base Space   Used Autos Params    Refs
 ---------------------------------------------------------------------------------
 (0) _main                                                 5     5      0   63490
                                              7 BANK0      5     5      0
                                  _A
                                  _B
                             _KeyPad
                           _lcd_init
                            _lcd_out
                              _reset
 ---------------------------------------------------------------------------------
 (1) _lcd_init                                             2     2      0      88
                                              5 COMMON     2     2      0
                          _lcd_clear
                          _lcd_write
 ---------------------------------------------------------------------------------
 (2) _lcd_clear                                            2     2      0      44
                                              3 COMMON     2     2      0
                          _lcd_write
 ---------------------------------------------------------------------------------
 (1) _B                                                    5     5      0   20597
                                             10 COMMON     3     3      0
                                              0 BANK0      2     2      0
                             _KeyPad
                            _lcd_out
                              _reset
 ---------------------------------------------------------------------------------
 (1) _reset                                                0     0      0    9927
                            _lcd_out
 ---------------------------------------------------------------------------------
 (1) _A                                                    5     5      0   22230
                                              2 BANK0      5     5      0
                             _KeyPad
                                _Val
                            _lcd_chr
                            _lcd_out
 ---------------------------------------------------------------------------------
 (2) _lcd_chr                                              4     2      2     480
                                              4 COMMON     4     2      2
                           _lcd_goto
                          _lcd_write
 ---------------------------------------------------------------------------------
 (2) _Val                                                  5     5      0   11188
                                             10 COMMON     3     3      0
                                              0 BANK0      2     2      0
                             _KeyPad
                         _lcd_chr_cp
                            _lcd_out
 ---------------------------------------------------------------------------------
 (2) _lcd_out                                              5     2      3    9927
                                              4 COMMON     5     2      3
                           _lcd_goto
                          _lcd_write
 ---------------------------------------------------------------------------------
 (3) _lcd_goto                                             1     1      0      66
                                              3 COMMON     1     1      0
                          _lcd_write
 ---------------------------------------------------------------------------------
 (3) _lcd_chr_cp                                           1     1      0      66
                                              3 COMMON     1     1      0
                          _lcd_write
 ---------------------------------------------------------------------------------
 (3) _lcd_write                                            3     3      0      44
                                              0 COMMON     3     3      0
 ---------------------------------------------------------------------------------
 (1) _KeyPad                                              10     8      2     566
                                              0 COMMON    10     8      2
 ---------------------------------------------------------------------------------
 Estimated maximum stack depth 3
 ---------------------------------------------------------------------------------

 Call Graph Graphs:

 _main (ROOT)
   _A
     _KeyPad
     _Val
       _KeyPad
       _lcd_chr_cp
         _lcd_write
       _lcd_out
         _lcd_goto
           _lcd_write
         _lcd_write
     _lcd_chr
       _lcd_goto
       _lcd_write
     _lcd_out
   _B
     _KeyPad
     _lcd_out
     _reset
       _lcd_out
   _KeyPad
   _lcd_init
     _lcd_clear
       _lcd_write
     _lcd_write
   _lcd_out
   _reset

 Address spaces:
Name               Size   Autos  Total    Cost      Usage
BANK3               60      0       0       9        0.0%
BITBANK3            60      0       0       8        0.0%
SFR3                 0      0       0       4        0.0%
BITSFR3              0      0       0       4        0.0%
BANK2               60      0       0      11        0.0%
BITBANK2            60      0       0      10        0.0%
SFR2                 0      0       0       5        0.0%
BITSFR2              0      0       0       5        0.0%
BANK1               50      0       0       7        0.0%
BITBANK1            50      0       0       6        0.0%
SFR1                 0      0       0       2        0.0%
BITSFR1              0      0       0       2        0.0%
BANK0               50      C      3C       5       75.0%
BITBANK0            50      0       0       4        0.0%
SFR0                 0      0       0       1        0.0%
BITSFR0              0      0       0       1        0.0%
COMMON               E      D       D       1       92.9%
BITCOMMON            E      0       0       0        0.0%
CODE                 0      0       0       0        0.0%
DATA                 0      0      49      12        0.0%
ABS                  0      0      49       3        0.0%
NULL                 0      0       0       0        0.0%
STACK                0      0       0       2        0.0%
EEDATA             100      0       0       0        0.0%


Microchip Technology PIC Macro Assembler V2.41 build 20230208172133 
Symbol Table                                                                                   Fri Feb 09 10:02:39 2024

            lcd_chr@line 0077                        _A 035C                        _B 0CBA  
             KeyPad@tala 0076                        pc 0002                       ?_A 0070  
                     ?_B 0070              lcd_chr_cp@c 0073                       l91 0B0C  
                     l94 0AC4              KeyPad@input 0078                       fsr 0004  
            KeyPad@press 0074                      ??_A 004E                      ??_B 007A  
                    l100 004D                      l103 0AB1                      l112 0013  
                    l106 0ADF                      l115 0BA1                      l310 0731  
                    l302 06F2                      l303 06F7                      l312 0762  
                    l217 0FFF                      l313 0761                      l242 035B  
                    l314 0766                      l306 0711                      l170 0B24  
                    l307 0716                      l171 0B2F                      l316 0783  
                    l260 04CF                      l172 0B29                      l332 0E01  
                    l309 072C                      l173 0B2E                      l319 07DA  
                    l271 0586                      l247 039E                      l175 0B33  
                    l264 0522                      l256 0415                      l176 0B38  
                    l168 0B25                      l177 0B45                      l169 0B1F  
                    l291 0685                      l275 05D9                      l339 0E09  
                    l292 068A                      l268 0541                      l286 0672  
                    l295 06A4                      l296 06A9                      l298 06BF  
                    l299 06C4                      _RA0 0028                      _RA1 0029  
                    _RA2 002A                      _RA3 002B                      _RC0 0038  
                    _RA4 002C                      _RC1 0039                      _RA5 002D  
                    _RB4 0034                      _RC2 003A                      _RA6 002E  
                    _RB5 0035                      _RC3 003B                      _RA7 002F  
                    _RB6 0036                      _RC4 003C                      _RE0 0048  
                    _RC5 003D                      _RB7 0037                      _Val 004E  
                    fsr0 0004                      _run 002E                      _yta 0022  
                    indf 0000              lcd_goto@pos 0073                     A@num 0051  
                   B@num 004C                     ?_Val 0070                     l2000 00C0  
                   l2010 00FD                     l2002 00CF                     l2100 0337  
                   l2020 013D                     l2012 0105                     l2004 00DE  
                   l2102 0343                     l2030 0186                     l2022 0148  
                   l2014 010B                     l2006 00EC                     l2110 0B4D  
                   l2104 034F                     l2040 01BC                     l2032 0195  
                   l2024 0155                     l2016 0118                     l2008 00F6  
                   l2200 0452                     l2120 0B60                     l2112 0B4E  
                   l2050 01FF                     l2042 01C2                     l2026 0164  
                   l2018 0125                     l2034 01A3                     l2210 0489  
                   l2202 045E                     l2130 0B74                     l2122 0B69  
                   l2114 0B4F                     l2106 0B46                     l2060 024C  
                   l2052 020C                     l2044 01CF                     l2036 01AD  
                   l2028 0177                     l2300 061E                     l2220 04B1  
                   l2212 0491                     l2204 046A                     l2140 0B8A  
                   l2132 0B75                     l2124 0B6C                     l2116 0B5E  
                   l2108 0B4A                     l2070 0279                     l2054 021B  
                   l2046 01DC                     l2062 025A                     l2038 01B4  
                   l2310 064E                     l2302 0629                     l2230 04E0  
                   l2222 04BE                     l2214 0497                     l2206 046E  
                   l2150 0364                     l2142 0B90                     l2134 0B79  
                   l2126 0B6D                     l2118 0B5F                     l2080 02C3  
                   l2072 0286                     l2064 0264                     l2056 022E  
                   l2048 01F4                     l2320 066D                     l2312 0655  
                   l2304 0635                     l2240 0511                     l2224 04CA  
                   l2232 04E8                     l2216 049B                     l2208 047D  
                   l2160 0386                     l2152 0368                     l2400 0CC0  
                   l2144 0B95                     l2136 0B7F                     l2128 0B71  
                   l2082 02D2                     l2074 0293                     l2090 0311  
                   l2066 026B                     l2058 023D                     l2330 069E  
                   l2314 065A                     l2322 0672                     l2306 0641  
                   l2242 051D                     l2250 053B                     l2234 04EE  
                   l2226 04CC                     l2218 04AB                     l2170 03C7  
                   l2162 03AA                     l2154 036C                     l2410 0CF5  
                   l2402 0CCB                     l2146 0B9B                     l2138 0B80  
                   l2092 031B                     l2084 02E5                     l2076 02AB  
                   l2068 0273                     l2340 06D8                     l2332 06AA  
                   l2324 067D                     l2316 0661                     l2308 0649  
                   l2260 0562                     l2252 0542                     l2244 051F  
                   l2236 04FE                     l2228 04D3                     l2180 03F2  
                   l2172 03D3                     l2164 03B0                     l2156 0371  
                   l2148 035C                     l2420 0D34                     l2412 0D0D  
                   l2404 0CD3                     l2500 0BCA                     l2094 0322  
                   l2086 02F4                     l2078 02B6                     l2350 06FB  
                   l2342 06DA                     l2334 06B9                     l2326 068E  
                   l2318 0666                     l2270 058A                     l2262 0568  
                   l2254 0548                     l2246 0526                     l2238 0504  
                   l2190 0427                     l2182 03F9                     l2174 03DF  
                   l2166 03BC                     l2158 0380                     l2430 0D76  
                   l2422 0D3B                     l2414 0D11                     l2406 0CEB  
                   l2510 0BDB                     l2502 0BCC                     l2096 032A  
                   l2088 0303                     l2360 0732                     l2352 06FC  
                   l2344 06DC                     l2336 06C5                     l2328 068F  
                   l2280 05BB                     l2272 0597                     l2264 0575  
                   l2256 054E                     l2248 0533                     l2192 0433  
                   l2184 03F9                     l2176 03E9                     l2168 03BC  
                   l2440 0DA4                     l2432 0D7A                     l2424 0D53  
                   l2416 0D18                     l2408 0CEF                     l2520 0C17  
                   l2512 0BE6                     l2504 0BCE                     l1810 0AF8  
                   l2098 032A                     l2370 074B                     l2362 0741  
                   l2354 070B                     l2346 06DE                     l2338 06D4  
                   l2290 05EA                     l2282 05C8                     l2266 0581  
                   l2274 059F                     l2258 0552                     l2186 03FD  
                   l2194 0442                     l2178 03EF                     l2450 0DEB  
                   l2442 0DBC                     l2434 0D81                     l2426 0D57  
                   l2418 0D30                     l2522 0C20                     l2514 0BEE  
                   l2506 0BD3                     l1900 0F43                     l1812 0AF9  
                   l1804 0AE1                     l1820 0009                     l2380 079B  
                   l2364 0745                     l2356 0717                     l2372 0757  
                   l2348 06EB                     l2284 05D4                     l2292 05F2  
                   l2276 05A5                     l2268 0583                     l2196 0445  
                   l2188 0421                     l2452 0DEF                     l2444 0DC0  
                   l2436 0D99                     l2428 0D5E                     l2540 0C90  
                   l2532 0C71                     l2524 0C3D                     l2516 0C06  
                   l2508 0BD8                     l1902 0F4E                     l1910 0F77  
                   l1814 0B06                     l1806 0AE6                     l1822 000C  
                   l1830 0037                     l2390 07B8                     l2382 07A1  
                   l2366 0747                     l2358 0726                     l2294 0601  
                   l2286 05D6                     l2278 05B5                     l2198 0446  
                   l2454 0DF4                     l2446 0DC6                     l2438 0D9D  
                   l2542 0CA8                     l2534 0C7B                     l2526 0C4C  
                   l2518 0C09                     l2470 0BAF                     l2462 0BA2  
                   l1920 0FB3                     l1912 0F96                     l1904 0F59  
                   l1840 0E0D                     l1816 0B07                     l1808 0AF7  
                   l1832 003D                     l1824 0015                     l2392 07BA  
                   l2384 07B0                     l2376 076A                     l2368 0749  
                   l2296 0610                     l2288 05DD                     l2448 0DDE  
                   l2456 0E01                     l2536 0C82                     l2528 0C53  
                   l2480 0BB8                     l2472 0BB2                     l2464 0BA6  
                   l1922 0FBE                     l1914 0F9D                     l1930 0FDF  
                   l1850 0E3C                     l1842 0E11                     l1818 0B08  
                   l1834 0AA8                     l1826 0025                     l2394 07C6  
                   l2386 07B4                     l2378 076B                     l2298 0616  
                   l2538 0C89                     l2490 0BBF                     l2482 0BB9  
                   l2474 0BB3                     l2466 0BA9                     l1924 0FC9  
                   l1932 0FF2                     l1916 0FA4                     l1908 0F64  
                   l1852 0E44                     l1844 0E27                     l1836 0AAB  
                   l1828 0029                     l2388 07B6                     l2396 07D2  
                   l2492 0BC0                     l2484 0BBA                     l2476 0BB4  
                   l2468 0BAA                     l2670 0FE4                     l1926 0FD4  
                   l1918 0FAB                     l1870 0EB0                     l1854 0E4F  
                   l1846 0E2E                     l1862 0E70                     l1838 0E0A  
                   l2398 0CBA                     l2494 0BC1                     l2486 0BBB  
                   l2478 0BB5                     l1880 0EE0                     l1872 0EB7  
                   l2664 0E75                     l1856 0E5A                     l1864 0E83  
                   l1848 0E35                     l2496 0BC2                     l2488 0BBC  
                   l1938 0FFB                     l1890 0F1B                     l2666 0EEE  
                   l1882 0EE2                     l1874 0EBF                     l1866 0EA2  
                   l1858 0E65                     l1970 0AB2                     l2498 0BC9  
                   l2668 0F69                     l1892 0F22                     l1876 0ECA  
                   l1868 0EA9                     l1980 0B0D                     l1972 0AB5  
                   l1894 0F29                     l1878 0ED5                     l1886 0EE9  
                   l1990 006E                     l1982 0B19                     l1974 0ABB  
                   l1896 0F30                     l1888 0EFC                     l1992 0086  
                   l1976 0AC6                     l1984 0B39                     l1898 0F38  
                   l1994 0091                     l1986 004E                     l1978 0AD6  
                   l1996 009E                     l1988 0061                     l1998 00AD  
                   STR_1 118A                     STR_2 1001                     STR_3 1001  
                   STR_4 1114                     STR_5 1166                     STR_6 1001  
                   STR_7 1114                     STR_8 116F                     STR_9 1001  
                   u2000 0649                     u2001 0648                     u2010 0655  
                   u2011 0654                     u1300 0EBE                     u1220 004D  
                   u2100 06C4                     u2020 0661                     u1301 0EBD  
                   u1205 0AE9                     u1221 004C                     u2101 06C3  
                   u2021 0660                     u1310 0F22                     u1230 0E2E  
                   u2110 06F2                     u2030 066D                     u1311 0F21  
                   u1231 0E2D                     u1215 0018                     u2111 06F1  
                   u2031 066C                     u1320 0F29                     u1240 0E35  
                   u2200 076A                     u2120 06F7                     u2040 0685  
                   u1400 0B1F                     u1321 0F28                     u1241 0E34  
                   u2201 0769                     u2121 06F6                     u2041 0684  
                   u1401 0B1E                     u1330 0F30                     u1250 0E3C  
                   u2210 07A1                     u2130 06FB                     u2050 068A  
                   u1410 0B24                     u1331 0F2F                     u1251 0E3B  
                   u2211 07A0                     u2131 06FA                     u2051 0689  
                   u1411 0B23                     u1340 0F37                     u1260 0E43  
                   u1500 00F6                     u2220 07DA                     u2140 0711  
                   u2060 068E                     u1420 0B29                     u2300 0DC6  
                   u1341 0F36                     u1261 0E42                     u1501 00F5  
                   u2221 07D9                     u2141 0710                     u2061 068D  
                   u1421 0B28                     u2301 0DC5                     u1350 0F9D  
                   u1270 0EA9                     u1510 0155                     u2150 0716  
                   u2070 06A4                     u1430 0B2E                     u2310 0E09  
                   u2230 0CD3                     u1351 0F9C                     u1271 0EA8  
                   u1511 0154                     u2151 0715                     u2071 06A3  
                   u1431 0B2D                     u2311 0E08                     u2231 0CD2  
                   u1360 0FA4                     u1280 0EB0                     u1600 0264  
                   u1520 0164                     u2160 072C                     u2080 06A9  
                   u1440 0B33                     u2240 0CF5                     u2320 0BEE  
                   u1361 0FA3                     u1281 0EAF                     u1601 0263  
                   u1521 0163                     u2161 072B                     u2081 06A8  
                   u1441 0B32                     u2241 0CF4                     u2321 0BED  
                   u1370 0FAB                     u1290 0EB7                     u1610 02C3  
                   u1530 0186                     u2170 0731                     u2090 06BF  
                   u1450 0B38                     u2250 0D18                     u2330 0C20  
                   u1371 0FAA                     u1291 0EB6                     u1611 02C2  
                   u1531 0185                     u1515 0151                     u2171 0730  
                   u2091 06BE                     u1451 0B37                     u2251 0D17  
                   u2331 0C1F                     u1380 0FB2                     u1620 02D2  
                   u1540 0195                     u1460 009E                     u2180 0760  
                   u1700 03EF                     u2260 0D3B                     u2340 0C53  
                   u1381 0FB1                     u1621 02D1                     u1541 0194  
                   u1525 0160                     u1461 009D                     u2181 075F  
                   u1701 03EE                     u2261 0D3A                     u2341 0C52  
                   u1630 02F4                     u1550 01AD                     u1470 00AD  
                   u2190 0766                     u1710 03F9                     u2270 0D5E  
                   u2350 0C7B                     u1631 02F3                     u1615 02BF  
                   u1551 01AC                     u1535 0182                     u1471 00AC  
                   u2191 0765                     u1711 03F8                     u2271 0D5D  
                   u2351 0C7A                     u2407 0C45                     u1640 0303  
                   u1560 020C                     u1480 00CF                     u1800 04EE  
                   u1720 03FD                     u2280 0D81                     u2360 0C82  
                   u1641 0302                     u1625 02CE                     u1561 020B  
                   u1545 0191                     u1481 00CE                     u1465 009A  
                   u1801 04ED                     u1721 03FC                     u2281 0D80  
                   u2417 0CB0                     u2361 0C81                     u1650 031B  
                   u1570 021B                     u1490 00DE                     u1810 0504  
                   u1730 0427                     u2290 0DA4                     u2370 0C89  
                   u1651 031A                     u1635 02F0                     u1571 021A  
                   u1491 00DD                     u1475 00A9                     u1395 0AC9  
                   u1811 0503                     u1731 0426                     u2507 0379  
                   u2291 0DA3                     u2427 0B53                     u2371 0C88  
                   u1580 023D                     u1900 058A                     u1820 0511  
                   u1740 0491                     u1660 0364                     u2380 0C90  
                   u1645 02FF                     u1581 023C                     u1565 0208  
                   u1485 00CB                     u1901 0589                     u1821 0510  
                   u1741 0490                     u2517 043B                     u1661 0363  
                   u2437 0B64                     u2381 0C8F                     u1590 024C  
                   u1910 0597                     u1830 0526                     u1750 049B  
                   u1670 0386                     u1591 024B                     u1575 0217  
                   u1495 00DA                     u2607 0054                     u1911 0596  
                   u1831 0525                     u1751 049A                     u2527 0476  
                   u1671 0385                     u2447 0B6F                     u1920 05A5  
                   u1840 0533                     u1760 04B1                     u1680 03B0  
                   u1585 0239                     u2617 00B9                     u2537 0697  
                   u1921 05A4                     u1841 0532                     u1825 050D  
                   u1761 04B0                     u1681 03AF                     u2457 0B77  
                   u1930 05BB                     u1850 0541                     u1770 04BE  
                   u1690 03E9                     u2707 0256                     u1595 0248  
                   u2627 00E8                     u2547 06B2                     u1931 05BA  
                   u1915 0593                     u1851 0540                     u1771 04BD  
                   u1691 03E8                     u2467 0B85                     u1940 05C8  
                   u1860 0548                     u1780 04D3                     u2717 026F  
                   u2637 0101                     u2557 06CD                     u1941 05C7  
                   u1861 0547                     u1845 052F                     u1781 04D2  
                   u2477 0ABF                     u2397 0C11                     u1950 05DD  
                   u1870 0552                     u1790 04E0                     u2807 0B0A  
                   u2727 027F                     u2647 0111                     u2567 0704  
                   u1951 05DC                     u1871 0551                     u1791 04DF  
                   u1775 04BA                     u2487 0DE4                     u1960 05EA  
                   u1880 0568                     u2817 0E19                     u2737 02DE  
                   u2657 0170                     u2577 071F                     u1961 05E9  
                   u1945 05C4                     u1881 0567                     u2497 0DFA  
                   u1970 0601                     u1890 0575                     u2827 0E87  
                   u2747 030D                     u2667 019F                     u2587 073A  
                   u1971 0600                     u1891 0574                     u1795 04DC  
                   _PEIE 005E                     u1980 0610                     u2837 0E94  
                   u2757 0326                     u2677 01B8                     u2597 07A9  
                   u1981 060F                     u1965 05E6                     u1990 061E  
                   u2847 0F00                     u2767 0330                     u2687 01C8  
                   u1991 061D                     u1975 05FD                     u1895 0571  
                   _RBIE 005B                     _RBIF 0058                     u2857 0F0D  
                   u2777 0355                     u2697 0227                     u1985 060C  
                   u2867 0F7B                     u2787 0AE3                     _RCIE 0465  
                   u2877 0F88                     u2797 0AFB                     u2887 0FF6  
            lcd_out@line 0078                     _main 0BA2                     _scan 0042  
                   _tala 0024                     btemp 007E                     start 0000  
                  ??_Val 007A                    ?_main 0070                    STR_10 1114  
                  STR_11 1178                    STR_20 1001                    STR_12 1001  
                  STR_13 1114                    STR_21 1134                    STR_30 11A2  
                  STR_14 1181                    STR_22 1124                    STR_31 1001  
                  STR_23 1001                    STR_15 1001                    STR_24 1001  
                  STR_16 1001                    STR_40 1000                    STR_32 1193  
                  STR_17 1001                    STR_25 1150                    STR_41 10F2  
                  STR_33 1000                    STR_50 1001                    STR_26 1001  
                  STR_18 1001                    STR_34 1000                    STR_42 1103  
                  STR_35 1001                    STR_27 1001                    STR_19 1150  
                  STR_51 109D                    STR_43 1059                    STR_60 1001  
                  STR_52 1001                    STR_36 1001                    STR_28 1001  
                  STR_44 10AE                    STR_61 1001                    STR_29 115C  
                  STR_37 1143                    STR_53 10D0                    STR_45 107B  
                  STR_62 1001                    STR_54 1001                    STR_46 10AE  
                  STR_38 119B                    STR_39 1000                    STR_47 108C  
                  STR_55 106A                    STR_63 1048                    STR_48 1001  
                  STR_64 10E1                    STR_56 1012                    STR_49 10BF  
                  STR_57 1024                    STR_58 1036                    STR_59 1001  
                  _ANSEL 0188                    _IOCB6 04B6                    _IOCB7 04B7  
                  _PORTA 0005                    _PORTB 0006                    _PORTC 0007  
                  _PORTD 0008                    _PORTE 0009                    _TRISA 0085  
                  _TRISB 0086                    _TRISC 0087                    _TRISD 0088  
                  _TRISE 0089          __end_of_lcd_chr 0AE0          __end_of_lcd_out 004E  
                  _bakka 0020                    _keyra 002A                    _reset 0B0D  
                  pclath 000A                    status 0003                    wtemp0 007E  
       lcd_chr@character 0074          __initialization 07DB             __end_of_main 0CBA  
                 ??_main 0053                   ?_reset 0070                   _ANSELH 0189  
                 _INTCON 000B                   _OSCCON 008F                   Val@num 004C  
                 _KeyPad 0E0A         __end_of_lcd_init 0BA2         __end_of_lcd_goto 0014  
                 _pallur 002C                   _segull 0044                ??_lcd_chr 0076  
              ??_lcd_out 0077  __end_of__initialization 07FC           __pcstackCOMMON 0070  
           __pidataBANK0 0004            __end_of_reset 0B46                  ??_reset 0079  
             __pbssBANK0 0020                  ?_KeyPad 0070               __pmaintext 0BA2  
                _CM1CON0 0107                  _CM2CON0 0108               _lcd_chr_cp 0AA7  
             _flickermax 0058                ?_lcd_init 0070                ?_lcd_goto 0070  
             __stringtab 0800        __end_of_lcd_clear 0AC5        __end_of_lcd_write 0B0D  
       lcd_out@character 0074                  __ptext1 0B46                  __ptext2 0AB2  
                __ptext3 0CBA                  __ptext4 0B0D                  __ptext5 035C  
                __ptext6 0AC5                  __ptext7 004E                  __ptext8 0014  
                __ptext9 0008                  _lcd_chr 0AC5                  _lcd_out 0014  
                _kubbur1 0036                  _kubbur2 0034                  _kubbur3 0032  
                _kubbur4 0030                  _teljari 0038                  _veljari 0028  
                clrloop0 0AA0                  main@num 0056               ??_lcd_init 0075  
             ??_lcd_goto 0073     end_of_initialization 07FC             _flickerspeed 005A  
           __pstringtext 1000              ?_lcd_chr_cp 0070                _DebounceA 004A  
              _DebounceB 0048               lcd_write@c 0072           __end_of_KeyPad 1000  
    start_initialization 07DB                _ManualRun 0026              __end_of_Val 035C  
               ??_KeyPad 0072              __pdataBANK0 0058                ___latbits 0002  
          __pcstackBANK0 004C                __end_of_A 07DB                __end_of_B 0E0A  
              _lcd_clear 0AB2                _flickerA1 003E                _flickerA2 003A  
              __pstrings 0800                 ?_lcd_chr 0074                _lcd_write 0AE0  
               ?_lcd_out 0074                clear_ram0 0A9F             _interrupt_ms 0046  
             ?_lcd_clear 0070              __stringbase 0812               ?_lcd_write 0070  
           ??_lcd_chr_cp 0073       __end_of_lcd_chr_cp 0AB2       __end_of__stringtab 0812  
               __ptext10 0AA7                 __ptext11 0AE0                 __ptext12 0E0A  
               _flicker1 0040                 _flicker2 003C                 _lcd_init 0B46  
               _lcd_goto 0008                 lcd_chr@c 0075              ??_lcd_clear 0073  
               lcd_out@s 0075              ??_lcd_write 0070               _INTCONbits 000B  
              stringcode 080A                 stringtab 0800  
